---
triple:          'arm64-apple-darwin'
binary-path:     test
relocations:
  - { offsetInCU: 0x26, offset: 0x26, size: 0x8, addend: 0x0, symName: _main, symObjAddr: 0x0, symBinAddr: 0x100002424, symSize: 0x128 }
  - { offsetInCU: 0x2FF1, offset: 0x2FF1, size: 0x8, addend: 0x0, symName: __ZNSt3__119__debug_db_insert_cB7v160006INS_12basic_stringIcNS_11char_traitsIcEENS_9allocatorIcEEEEEEvPT_, symObjAddr: 0x22C, symBinAddr: 0x100002650, symSize: 0x10 }
  - { offsetInCU: 0x3022, offset: 0x3022, size: 0x8, addend: 0x0, symName: __ZNSt3__118__constexpr_strlenB7v160006EPKc, symObjAddr: 0x2F8, symBinAddr: 0x10000271C, symSize: 0x24 }
  - { offsetInCU: 0x5FE7, offset: 0x5FE7, size: 0x8, addend: 0x0, symName: _main, symObjAddr: 0x0, symBinAddr: 0x100002424, symSize: 0x128 }
  - { offsetInCU: 0x6180, offset: 0x6180, size: 0x8, addend: 0x0, symName: __ZNSt3__112basic_stringIcNS_11char_traitsIcEENS_9allocatorIcEEEC1B7v160006IDnEEPKc, symObjAddr: 0x128, symBinAddr: 0x10000254C, symSize: 0x34 }
  - { offsetInCU: 0x61BC, offset: 0x61BC, size: 0x8, addend: 0x0, symName: __ZNSt3__112basic_stringIcNS_11char_traitsIcEENS_9allocatorIcEEEC2B7v160006IDnEEPKc, symObjAddr: 0x15C, symBinAddr: 0x100002580, symSize: 0x60 }
  - { offsetInCU: 0x61FD, offset: 0x61FD, size: 0x8, addend: 0x0, symName: __ZNSt3__117__compressed_pairINS_12basic_stringIcNS_11char_traitsIcEENS_9allocatorIcEEE5__repES5_EC1B7v160006INS_18__default_init_tagESA_EEOT_OT0_, symObjAddr: 0x1BC, symBinAddr: 0x1000025E0, symSize: 0x3C }
  - { offsetInCU: 0x6253, offset: 0x6253, size: 0x8, addend: 0x0, symName: __ZNSt3__111char_traitsIcE6lengthEPKc, symObjAddr: 0x1F8, symBinAddr: 0x10000261C, symSize: 0x34 }
  - { offsetInCU: 0x6275, offset: 0x6275, size: 0x8, addend: 0x0, symName: __ZNSt3__117__compressed_pairINS_12basic_stringIcNS_11char_traitsIcEENS_9allocatorIcEEE5__repES5_EC2B7v160006INS_18__default_init_tagESA_EEOT_OT0_, symObjAddr: 0x23C, symBinAddr: 0x100002660, symSize: 0x3C }
  - { offsetInCU: 0x62CB, offset: 0x62CB, size: 0x8, addend: 0x0, symName: __ZNSt3__122__compressed_pair_elemINS_12basic_stringIcNS_11char_traitsIcEENS_9allocatorIcEEE5__repELi0ELb0EEC2B7v160006ENS_18__default_init_tagE, symObjAddr: 0x278, symBinAddr: 0x10000269C, symSize: 0x14 }
  - { offsetInCU: 0x62FD, offset: 0x62FD, size: 0x8, addend: 0x0, symName: __ZNSt3__122__compressed_pair_elemINS_9allocatorIcEELi1ELb1EEC2B7v160006ENS_18__default_init_tagE, symObjAddr: 0x28C, symBinAddr: 0x1000026B0, symSize: 0x2C }
  - { offsetInCU: 0x632F, offset: 0x632F, size: 0x8, addend: 0x0, symName: __ZNSt3__19allocatorIcEC2B7v160006Ev, symObjAddr: 0x2B8, symBinAddr: 0x1000026DC, symSize: 0x2C }
  - { offsetInCU: 0x6357, offset: 0x6357, size: 0x8, addend: 0x0, symName: __ZNSt3__116__non_trivial_ifILb1ENS_9allocatorIcEEEC2B7v160006Ev, symObjAddr: 0x2E4, symBinAddr: 0x100002708, symSize: 0x14 }
  - { offsetInCU: 0x5C, offset: 0x6568, size: 0x8, addend: 0x0, symName: __ZNSt3__1L19piecewise_constructE, symObjAddr: 0xF9DA, symBinAddr: 0x100013450, symSize: 0x0 }
  - { offsetInCU: 0x8B26, offset: 0xF032, size: 0x8, addend: 0x0, symName: __ZNSt3__17advanceB7v160006IPNS_6vectorI4CellNS_9allocatorIS2_EEEEllvEEvRT_T0_, symObjAddr: 0x4230, symBinAddr: 0x100006970, symSize: 0x50 }
  - { offsetInCU: 0x8DA7, offset: 0xF2B3, size: 0x8, addend: 0x0, symName: __ZNSt3__17advanceB7v160006INS_16reverse_iteratorIPNS_6vectorI4CellNS_9allocatorIS3_EEEEEEllvEEvRT_T0_, symObjAddr: 0x4630, symBinAddr: 0x100006D70, symSize: 0x50 }
  - { offsetInCU: 0x9303, offset: 0xF80F, size: 0x8, addend: 0x0, symName: __ZNSt3__17advanceB7v160006INS_21__tree_const_iteratorINS_12__value_typeINS_12basic_stringIcNS_11char_traitsIcEENS_9allocatorIcEEEEiEEPNS_11__tree_nodeIS9_PvEElEEllvEEvRT_T0_, symObjAddr: 0x78B8, symBinAddr: 0x100009FF8, symSize: 0x50 }
  - { offsetInCU: 0x938B, offset: 0xF897, size: 0x8, addend: 0x0, symName: __ZNSt3__17advanceB7v160006IP4CellllvEEvRT_T0_, symObjAddr: 0x8734, symBinAddr: 0x10000AE74, symSize: 0x50 }
  - { offsetInCU: 0x960C, offset: 0xFB18, size: 0x8, addend: 0x0, symName: __ZNSt3__17advanceB7v160006INS_16reverse_iteratorIP4CellEEllvEEvRT_T0_, symObjAddr: 0x8B20, symBinAddr: 0x10000B260, symSize: 0x50 }
  - { offsetInCU: 0xC0AB, offset: 0x125B7, size: 0x8, addend: 0x0, symName: __ZNSt3__17advanceB7v160006IPNS_6vectorIiNS_9allocatorIiEEEEllvEEvRT_T0_, symObjAddr: 0xA4F8, symBinAddr: 0x10000CC38, symSize: 0x50 }
  - { offsetInCU: 0xC32C, offset: 0x12838, size: 0x8, addend: 0x0, symName: __ZNSt3__17advanceB7v160006INS_16reverse_iteratorIPNS_6vectorIiNS_9allocatorIiEEEEEEllvEEvRT_T0_, symObjAddr: 0xA954, symBinAddr: 0x10000D094, symSize: 0x50 }
  - { offsetInCU: 0xC7C3, offset: 0x12CCF, size: 0x8, addend: 0x0, symName: __ZNSt3__17advanceB7v160006IPillvEEvRT_T0_, symObjAddr: 0xC95C, symBinAddr: 0x10000F09C, symSize: 0x50 }
  - { offsetInCU: 0xC82F, offset: 0x12D3B, size: 0x8, addend: 0x0, symName: __ZNSt3__124__put_character_sequenceB7v160006IcNS_11char_traitsIcEEEERNS_13basic_ostreamIT_T0_EES7_PKS4_m, symObjAddr: 0xC9FC, symBinAddr: 0x10000F13C, symSize: 0x1EC }
  - { offsetInCU: 0x10DF2, offset: 0x172FE, size: 0x8, addend: 0x0, symName: __ZNSt3__1lsB7v160006INS_11char_traitsIcEEEERNS_13basic_ostreamIcT_EES6_PKc, symObjAddr: 0x2E8, symBinAddr: 0x100002A34, symSize: 0x48 }
  - { offsetInCU: 0x10E39, offset: 0x17345, size: 0x8, addend: 0x0, symName: __ZNSt3__14endlB7v160006IcNS_11char_traitsIcEEEERNS_13basic_ostreamIT_T0_EES7_, symObjAddr: 0x35C, symBinAddr: 0x100002AA8, symSize: 0x58 }
  - { offsetInCU: 0x10E7A, offset: 0x17386, size: 0x8, addend: 0x0, symName: __ZNSt3__1neB7v160006IPNS_6vectorIiNS_9allocatorIiEEEEEEbRKNS_11__wrap_iterIT_EESA_, symObjAddr: 0x954, symBinAddr: 0x1000030A0, symSize: 0x34 }
  - { offsetInCU: 0x10EBD, offset: 0x173C9, size: 0x8, addend: 0x0, symName: __ZNSt3__1lsB7v160006IcNS_11char_traitsIcEENS_9allocatorIcEEEERNS_13basic_ostreamIT_T0_EES9_RKNS_12basic_stringIS6_S7_T1_EE, symObjAddr: 0xA90, symBinAddr: 0x1000031DC, symSize: 0x4C }
  - { offsetInCU: 0x10F16, offset: 0x17422, size: 0x8, addend: 0x0, symName: __ZNSt3__1neB7v160006ERKNS_14__map_iteratorINS_15__tree_iteratorINS_12__value_typeIiiEEPNS_11__tree_nodeIS3_PvEElEEEESB_, symObjAddr: 0x1694, symBinAddr: 0x100003DE0, symSize: 0x30 }
  - { offsetInCU: 0x10F54, offset: 0x17460, size: 0x8, addend: 0x0, symName: __ZNSt3__119__debug_db_insert_cB7v160006INS_6vectorINS1_I4CellNS_9allocatorIS2_EEEENS3_IS5_EEEEEEvPT_, symObjAddr: 0x18FC, symBinAddr: 0x10000403C, symSize: 0x10 }
  - { offsetInCU: 0x10F85, offset: 0x17491, size: 0x8, addend: 0x0, symName: __ZNSt3__118__debug_db_erase_cB7v160006INS_6vectorINS1_I4CellNS_9allocatorIS2_EEEENS3_IS5_EEEEEEvPT_, symObjAddr: 0x1BDC, symBinAddr: 0x10000431C, symSize: 0x10 }
  - { offsetInCU: 0x10FB6, offset: 0x174C2, size: 0x8, addend: 0x0, symName: __ZNSt3__112__to_addressB7v160006INS_6vectorI4CellNS_9allocatorIS2_EEEEEEPT_S7_, symObjAddr: 0x1D20, symBinAddr: 0x100004460, symSize: 0x14 }
  - { offsetInCU: 0x10FEC, offset: 0x174F8, size: 0x8, addend: 0x0, symName: __ZNSt3__110destroy_atB7v160006INS_6vectorI4CellNS_9allocatorIS2_EEEELi0EEEvPT_, symObjAddr: 0x1DE8, symBinAddr: 0x100004528, symSize: 0x24 }
  - { offsetInCU: 0x11025, offset: 0x17531, size: 0x8, addend: 0x0, symName: __ZNSt3__112__destroy_atB7v160006INS_6vectorI4CellNS_9allocatorIS2_EEEELi0EEEvPT_, symObjAddr: 0x1E0C, symBinAddr: 0x10000454C, symSize: 0x24 }
  - { offsetInCU: 0x1105E, offset: 0x1756A, size: 0x8, addend: 0x0, symName: __ZNSt3__118__debug_db_erase_cB7v160006INS_6vectorI4CellNS_9allocatorIS2_EEEEEEvPT_, symObjAddr: 0x2064, symBinAddr: 0x1000047A4, symSize: 0x10 }
  - { offsetInCU: 0x1108F, offset: 0x1759B, size: 0x8, addend: 0x0, symName: __ZNSt3__112__to_addressB7v160006I4CellEEPT_S3_, symObjAddr: 0x21A8, symBinAddr: 0x1000048E8, symSize: 0x14 }
  - { offsetInCU: 0x110C5, offset: 0x175D1, size: 0x8, addend: 0x0, symName: __ZNSt3__110destroy_atB7v160006I4CellLi0EEEvPT_, symObjAddr: 0x2270, symBinAddr: 0x1000049B0, symSize: 0x24 }
  - { offsetInCU: 0x110FE, offset: 0x1760A, size: 0x8, addend: 0x0, symName: __ZNSt3__112__destroy_atB7v160006I4CellLi0EEEvPT_, symObjAddr: 0x2294, symBinAddr: 0x1000049D4, symSize: 0x24 }
  - { offsetInCU: 0x11137, offset: 0x17643, size: 0x8, addend: 0x0, symName: __ZNSt3__110destroy_atB7v160006INS_4pairIKNS_12basic_stringIcNS_11char_traitsIcEENS_9allocatorIcEEEEiEELi0EEEvPT_, symObjAddr: 0x2584, symBinAddr: 0x100004CC4, symSize: 0x24 }
  - { offsetInCU: 0x11170, offset: 0x1767C, size: 0x8, addend: 0x0, symName: __ZNSt3__112__destroy_atB7v160006INS_4pairIKNS_12basic_stringIcNS_11char_traitsIcEENS_9allocatorIcEEEEiEELi0EEEvPT_, symObjAddr: 0x25A8, symBinAddr: 0x100004CE8, symSize: 0x24 }
  - { offsetInCU: 0x111A9, offset: 0x176B5, size: 0x8, addend: 0x0, symName: __ZNSt3__17launderB7v160006INS_4pairIKNS_12basic_stringIcNS_11char_traitsIcEENS_9allocatorIcEEEEiEEEEPT_SB_, symObjAddr: 0x2648, symBinAddr: 0x100004D88, symSize: 0x24 }
  - { offsetInCU: 0x111E1, offset: 0x176ED, size: 0x8, addend: 0x0, symName: __ZNSt3__19__launderB7v160006INS_4pairIKNS_12basic_stringIcNS_11char_traitsIcEENS_9allocatorIcEEEEiEEEEPT_SB_, symObjAddr: 0x266C, symBinAddr: 0x100004DAC, symSize: 0x14 }
  - { offsetInCU: 0x11219, offset: 0x17725, size: 0x8, addend: 0x0, symName: __ZNSt3__119__libcpp_deallocateB7v160006EPvmm, symObjAddr: 0x26C0, symBinAddr: 0x100004E00, symSize: 0x60 }
  - { offsetInCU: 0x11281, offset: 0x1778D, size: 0x8, addend: 0x0, symName: __ZNSt3__124__is_overaligned_for_newB7v160006Em, symObjAddr: 0x2720, symBinAddr: 0x100004E60, symSize: 0x20 }
  - { offsetInCU: 0x112B0, offset: 0x177BC, size: 0x8, addend: 0x0, symName: __ZNSt3__127__do_deallocate_handle_sizeB7v160006IJSt11align_val_tEEEvPvmDpT_, symObjAddr: 0x2740, symBinAddr: 0x100004E80, symSize: 0x30 }
  - { offsetInCU: 0x11304, offset: 0x17810, size: 0x8, addend: 0x0, symName: __ZNSt3__127__do_deallocate_handle_sizeB7v160006IJEEEvPvmDpT_, symObjAddr: 0x2770, symBinAddr: 0x100004EB0, symSize: 0x28 }
  - { offsetInCU: 0x11343, offset: 0x1784F, size: 0x8, addend: 0x0, symName: __ZNSt3__124__libcpp_operator_deleteB7v160006IJPvSt11align_val_tEEEvDpT_, symObjAddr: 0x2798, symBinAddr: 0x100004ED8, symSize: 0x2C }
  - { offsetInCU: 0x1138D, offset: 0x17899, size: 0x8, addend: 0x0, symName: __ZNSt3__124__libcpp_operator_deleteB7v160006IJPvEEEvDpT_, symObjAddr: 0x27C4, symBinAddr: 0x100004F04, symSize: 0x24 }
  - { offsetInCU: 0x1141D, offset: 0x17929, size: 0x8, addend: 0x0, symName: __ZNSt3__112construct_atB7v160006INS_6vectorI4CellNS_9allocatorIS2_EEEEJEPS5_EEPT_S8_DpOT0_, symObjAddr: 0x3074, symBinAddr: 0x1000057B4, symSize: 0x34 }
  - { offsetInCU: 0x1147B, offset: 0x17987, size: 0x8, addend: 0x0, symName: __ZNSt3__119__debug_db_insert_cB7v160006INS_6vectorI4CellNS_9allocatorIS2_EEEEEEvPT_, symObjAddr: 0x3168, symBinAddr: 0x1000058A8, symSize: 0x10 }
  - { offsetInCU: 0x114AC, offset: 0x179B8, size: 0x8, addend: 0x0, symName: __ZNSt3__13maxB7v160006ImEERKT_S3_S3_, symObjAddr: 0x32DC, symBinAddr: 0x100005A1C, symSize: 0x2C }
  - { offsetInCU: 0x114EF, offset: 0x179FB, size: 0x8, addend: 0x0, symName: __ZNSt3__13minB7v160006ImEERKT_S3_S3_, symObjAddr: 0x3308, symBinAddr: 0x100005A48, symSize: 0x2C }
  - { offsetInCU: 0x1171C, offset: 0x17C28, size: 0x8, addend: 0x0, symName: __ZNSt3__13minB7v160006ImNS_6__lessImmEEEERKT_S5_S5_T0_, symObjAddr: 0x3398, symBinAddr: 0x100005AD8, symSize: 0x54 }
  - { offsetInCU: 0x1199E, offset: 0x17EAA, size: 0x8, addend: 0x0, symName: __ZNSt3__120__throw_length_errorB7v160006EPKc, symObjAddr: 0x347C, symBinAddr: 0x100005BBC, symSize: 0x64 }
  - { offsetInCU: 0x119C7, offset: 0x17ED3, size: 0x8, addend: 0x0, symName: __ZNSt3__13maxB7v160006ImNS_6__lessImmEEEERKT_S5_S5_T0_, symObjAddr: 0x3560, symBinAddr: 0x100005CA0, symSize: 0x54 }
  - { offsetInCU: 0x11A21, offset: 0x17F2D, size: 0x8, addend: 0x0, symName: __ZNSt3__119__allocate_at_leastB7v160006INS_9allocatorINS_6vectorI4CellNS1_IS3_EEEEEEEENS_19__allocation_resultINS_16allocator_traitsIT_E7pointerEEERS9_m, symObjAddr: 0x36D0, symBinAddr: 0x100005E10, symSize: 0x40 }
  - { offsetInCU: 0x11A64, offset: 0x17F70, size: 0x8, addend: 0x0, symName: __ZNSt3__117__libcpp_allocateB7v160006Emm, symObjAddr: 0x3858, symBinAddr: 0x100005F98, symSize: 0x60 }
  - { offsetInCU: 0x11AC1, offset: 0x17FCD, size: 0x8, addend: 0x0, symName: __ZNSt3__121__libcpp_operator_newB7v160006IJmSt11align_val_tEEEPvDpT_, symObjAddr: 0x38B8, symBinAddr: 0x100005FF8, symSize: 0x2C }
  - { offsetInCU: 0x11B0F, offset: 0x1801B, size: 0x8, addend: 0x0, symName: __ZNSt3__121__libcpp_operator_newB7v160006IJmEEEPvDpT_, symObjAddr: 0x38E4, symBinAddr: 0x100006024, symSize: 0x24 }
  - { offsetInCU: 0x11B49, offset: 0x18055, size: 0x8, addend: 0x0, symName: __ZNSt3__142__uninitialized_allocator_move_if_noexceptB7v160006INS_9allocatorINS_6vectorI4CellNS1_IS3_EEEEEENS_16reverse_iteratorIPS5_EES9_S9_EET2_RT_T0_T1_SA_, symObjAddr: 0x3A40, symBinAddr: 0x100006180, symSize: 0x12C }
  - { offsetInCU: 0x11BEC, offset: 0x180F8, size: 0x8, addend: 0x0, symName: __ZNSt3__14swapB7v160006IPNS_6vectorI4CellNS_9allocatorIS2_EEEEEENS_9enable_ifIXaasr21is_move_constructibleIT_EE5valuesr18is_move_assignableIS8_EE5valueEvE4typeERS8_SB_, symObjAddr: 0x3BB8, symBinAddr: 0x1000062F8, symSize: 0x3C }
  - { offsetInCU: 0x11C3E, offset: 0x1814A, size: 0x8, addend: 0x0, symName: __ZNSt3__125__debug_db_invalidate_allB7v160006INS_6vectorINS1_I4CellNS_9allocatorIS2_EEEENS3_IS5_EEEEEEvPT_, symObjAddr: 0x3CBC, symBinAddr: 0x1000063FC, symSize: 0x10 }
  - { offsetInCU: 0x11C6F, offset: 0x1817B, size: 0x8, addend: 0x0, symName: __ZNSt3__122__make_exception_guardB7v160006INS_29_AllocatorDestroyRangeReverseINS_9allocatorINS_6vectorI4CellNS2_IS4_EEEEEENS_16reverse_iteratorIPS6_EEEEEENS_28__exception_guard_exceptionsIT_EESD_, symObjAddr: 0x3CCC, symBinAddr: 0x10000640C, symSize: 0x4C }
  - { offsetInCU: 0x11CA5, offset: 0x181B1, size: 0x8, addend: 0x0, symName: __ZNSt3__1neB7v160006IPNS_6vectorI4CellNS_9allocatorIS2_EEEES6_EEbRKNS_16reverse_iteratorIT_EERKNS7_IT0_EE, symObjAddr: 0x3D5C, symBinAddr: 0x10000649C, symSize: 0x48 }
  - { offsetInCU: 0x11CF1, offset: 0x181FD, size: 0x8, addend: 0x0, symName: __ZNSt3__112__to_addressB7v160006INS_16reverse_iteratorIPNS_6vectorI4CellNS_9allocatorIS3_EEEEEEvEENS_5decayIDTclsr19__to_address_helperIT_EE6__callclsr3stdE7declvalIRKSA_EEEEE4typeESC_, symObjAddr: 0x3DD4, symBinAddr: 0x100006514, symSize: 0x24 }
  - { offsetInCU: 0x11D27, offset: 0x18233, size: 0x8, addend: 0x0, symName: __ZNSt3__112construct_atB7v160006INS_6vectorI4CellNS_9allocatorIS2_EEEEJS5_EPS5_EEPT_S8_DpOT0_, symObjAddr: 0x3F24, symBinAddr: 0x100006664, symSize: 0x3C }
  - { offsetInCU: 0x11D99, offset: 0x182A5, size: 0x8, addend: 0x0, symName: __ZNSt3__115__debug_db_swapB7v160006INS_6vectorI4CellNS_9allocatorIS2_EEEEEEvPT_S7_, symObjAddr: 0x40AC, symBinAddr: 0x1000067EC, symSize: 0x14 }
  - { offsetInCU: 0x11E02, offset: 0x1830E, size: 0x8, addend: 0x0, symName: __ZNSt3__14prevB7v160006IPNS_6vectorI4CellNS_9allocatorIS2_EEEEEENS_9enable_ifIXsr25__is_cpp17_input_iteratorIT_EE5valueES8_E4typeES8_NS_15iterator_traitsIS8_E15difference_typeE, symObjAddr: 0x41E0, symBinAddr: 0x100006920, symSize: 0x50 }
  - { offsetInCU: 0x11E45, offset: 0x18351, size: 0x8, addend: 0x0, symName: __ZNSt3__121__convert_to_integralB7v160006El, symObjAddr: 0x4280, symBinAddr: 0x1000069C0, symSize: 0x14 }
  - { offsetInCU: 0x11E72, offset: 0x1837E, size: 0x8, addend: 0x0, symName: __ZNSt3__19__advanceB7v160006IPNS_6vectorI4CellNS_9allocatorIS2_EEEEEEvRT_NS_15iterator_traitsIS7_E15difference_typeENS_26random_access_iterator_tagE, symObjAddr: 0x4294, symBinAddr: 0x1000069D4, symSize: 0x30 }
  - { offsetInCU: 0x11EBB, offset: 0x183C7, size: 0x8, addend: 0x0, symName: __ZNSt3__119__allocator_destroyB7v160006INS_9allocatorINS_6vectorI4CellNS1_IS3_EEEEEENS_16reverse_iteratorINS7_IPS5_EEEESA_EEvRT_T0_T1_, symObjAddr: 0x43C8, symBinAddr: 0x100006B08, symSize: 0x70 }
  - { offsetInCU: 0x11F21, offset: 0x1842D, size: 0x8, addend: 0x0, symName: __ZNSt3__1neB7v160006INS_16reverse_iteratorIPNS_6vectorI4CellNS_9allocatorIS3_EEEEEES8_EEbRKNS1_IT_EERKNS1_IT0_EE, symObjAddr: 0x4474, symBinAddr: 0x100006BB4, symSize: 0x60 }
  - { offsetInCU: 0x11F6D, offset: 0x18479, size: 0x8, addend: 0x0, symName: __ZNSt3__112__to_addressB7v160006INS_16reverse_iteratorINS1_IPNS_6vectorI4CellNS_9allocatorIS3_EEEEEEEEvEENS_5decayIDTclsr19__to_address_helperIT_EE6__callclsr3stdE7declvalIRKSB_EEEEE4typeESD_, symObjAddr: 0x44D4, symBinAddr: 0x100006C14, symSize: 0x24 }
  - { offsetInCU: 0x11FCD, offset: 0x184D9, size: 0x8, addend: 0x0, symName: __ZNSt3__14prevB7v160006INS_16reverse_iteratorIPNS_6vectorI4CellNS_9allocatorIS3_EEEEEEEENS_9enable_ifIXsr25__is_cpp17_input_iteratorIT_EE5valueESA_E4typeESA_NS_15iterator_traitsISA_E15difference_typeE, symObjAddr: 0x45D0, symBinAddr: 0x100006D10, symSize: 0x60 }
  - { offsetInCU: 0x12010, offset: 0x1851C, size: 0x8, addend: 0x0, symName: __ZNSt3__19__advanceB7v160006INS_16reverse_iteratorIPNS_6vectorI4CellNS_9allocatorIS3_EEEEEEEEvRT_NS_15iterator_traitsIS9_E15difference_typeENS_26random_access_iterator_tagE, symObjAddr: 0x4680, symBinAddr: 0x100006DC0, symSize: 0x2C }
  - { offsetInCU: 0x12081, offset: 0x1858D, size: 0x8, addend: 0x0, symName: __ZNSt3__112construct_atB7v160006I4CellJEPS1_EEPT_S4_DpOT0_, symObjAddr: 0x501C, symBinAddr: 0x10000775C, symSize: 0x34 }
  - { offsetInCU: 0x120DF, offset: 0x185EB, size: 0x8, addend: 0x0, symName: __ZNSt3__119__allocate_at_leastB7v160006INS_9allocatorI4CellEEEENS_19__allocation_resultINS_16allocator_traitsIT_E7pointerEEERS6_m, symObjAddr: 0x56B8, symBinAddr: 0x100007DF8, symSize: 0x40 }
  - { offsetInCU: 0x12122, offset: 0x1862E, size: 0x8, addend: 0x0, symName: __ZNSt3__142__uninitialized_allocator_move_if_noexceptB7v160006INS_9allocatorI4CellEENS_16reverse_iteratorIPS2_EES6_S6_EET2_RT_T0_T1_S7_, symObjAddr: 0x5944, symBinAddr: 0x100008084, symSize: 0x12C }
  - { offsetInCU: 0x121C5, offset: 0x186D1, size: 0x8, addend: 0x0, symName: __ZNSt3__14swapB7v160006IP4CellEENS_9enable_ifIXaasr21is_move_constructibleIT_EE5valuesr18is_move_assignableIS4_EE5valueEvE4typeERS4_S7_, symObjAddr: 0x5ABC, symBinAddr: 0x1000081FC, symSize: 0x3C }
  - { offsetInCU: 0x12217, offset: 0x18723, size: 0x8, addend: 0x0, symName: __ZNSt3__125__debug_db_invalidate_allB7v160006INS_6vectorI4CellNS_9allocatorIS2_EEEEEEvPT_, symObjAddr: 0x5BC0, symBinAddr: 0x100008300, symSize: 0x10 }
  - { offsetInCU: 0x12248, offset: 0x18754, size: 0x8, addend: 0x0, symName: __ZNSt3__122__make_exception_guardB7v160006INS_29_AllocatorDestroyRangeReverseINS_9allocatorI4CellEENS_16reverse_iteratorIPS3_EEEEEENS_28__exception_guard_exceptionsIT_EESA_, symObjAddr: 0x5BD0, symBinAddr: 0x100008310, symSize: 0x4C }
  - { offsetInCU: 0x1227E, offset: 0x1878A, size: 0x8, addend: 0x0, symName: __ZNSt3__1neB7v160006IP4CellS2_EEbRKNS_16reverse_iteratorIT_EERKNS3_IT0_EE, symObjAddr: 0x5C60, symBinAddr: 0x1000083A0, symSize: 0x48 }
  - { offsetInCU: 0x122CA, offset: 0x187D6, size: 0x8, addend: 0x0, symName: __ZNSt3__112__to_addressB7v160006INS_16reverse_iteratorIP4CellEEvEENS_5decayIDTclsr19__to_address_helperIT_EE6__callclsr3stdE7declvalIRKS6_EEEEE4typeES8_, symObjAddr: 0x5CD8, symBinAddr: 0x100008418, symSize: 0x24 }
  - { offsetInCU: 0x12300, offset: 0x1880C, size: 0x8, addend: 0x0, symName: __ZNSt3__112construct_atB7v160006I4CellJRKS1_EPS1_EEPT_S6_DpOT0_, symObjAddr: 0x5E28, symBinAddr: 0x100008568, symSize: 0x3C }
  - { offsetInCU: 0x12372, offset: 0x1887E, size: 0x8, addend: 0x0, symName: __ZNSt3__1neB7v160006ERKNS_20__map_const_iteratorINS_21__tree_const_iteratorINS_12__value_typeINS_12basic_stringIcNS_11char_traitsIcEENS_9allocatorIcEEEEiEEPNS_11__tree_nodeIS9_PvEElEEEESH_, symObjAddr: 0x6324, symBinAddr: 0x100008A64, symSize: 0x30 }
  - { offsetInCU: 0x123B0, offset: 0x188BC, size: 0x8, addend: 0x0, symName: __ZNSt3__1neB7v160006ERKNS_21__tree_const_iteratorINS_12__value_typeINS_12basic_stringIcNS_11char_traitsIcEENS_9allocatorIcEEEEiEEPNS_11__tree_nodeIS8_PvEElEESF_, symObjAddr: 0x642C, symBinAddr: 0x100008B6C, symSize: 0x34 }
  - { offsetInCU: 0x123EE, offset: 0x188FA, size: 0x8, addend: 0x0, symName: __ZNSt3__1eqB7v160006ERKNS_21__tree_const_iteratorINS_12__value_typeINS_12basic_stringIcNS_11char_traitsIcEENS_9allocatorIcEEEEiEEPNS_11__tree_nodeIS8_PvEElEESF_, symObjAddr: 0x6460, symBinAddr: 0x100008BA0, symSize: 0x30 }
  - { offsetInCU: 0x12450, offset: 0x1895C, size: 0x8, addend: 0x0, symName: __ZNSt3__14nextB7v160006INS_21__tree_const_iteratorINS_12__value_typeINS_12basic_stringIcNS_11char_traitsIcEENS_9allocatorIcEEEEiEEPNS_11__tree_nodeIS9_PvEElEEEENS_9enable_ifIXsr25__is_cpp17_input_iteratorIT_EE5valueESG_E4typeESG_NS_15iterator_traitsISG_E15difference_typeE, symObjAddr: 0x6F68, symBinAddr: 0x1000096A8, symSize: 0x50 }
  - { offsetInCU: 0x12493, offset: 0x1899F, size: 0x8, addend: 0x0, symName: __ZNSt3__1ltB7v160006ENS_15strong_orderingENS_20_CmpUnspecifiedParamE, symObjAddr: 0x70F0, symBinAddr: 0x100009830, symSize: 0x24 }
  - { offsetInCU: 0x124CE, offset: 0x189DA, size: 0x8, addend: 0x0, symName: __ZNSt3__1ssB7v160006IcNS_11char_traitsIcEENS_9allocatorIcEEEEDaRKNS_12basic_stringIT_T0_T1_EESC_, symObjAddr: 0x7114, symBinAddr: 0x100009854, symSize: 0x5C }
  - { offsetInCU: 0x12543, offset: 0x18A4F, size: 0x8, addend: 0x0, symName: __ZNSt3__1ssB7v160006IcNS_11char_traitsIcEEEEDaNS_17basic_string_viewIT_T0_EES7_, symObjAddr: 0x71A4, symBinAddr: 0x1000098E4, symSize: 0x7C }
  - { offsetInCU: 0x12593, offset: 0x18A9F, size: 0x8, addend: 0x0, symName: __ZNSt3__118__constexpr_memcmpB7v160006IcEEiPKT_S3_m, symObjAddr: 0x7448, symBinAddr: 0x100009B88, symSize: 0x34 }
  - { offsetInCU: 0x125E4, offset: 0x18AF0, size: 0x8, addend: 0x0, symName: __ZNSt3__112__to_addressB7v160006IKcEEPT_S3_, symObjAddr: 0x7534, symBinAddr: 0x100009C74, symSize: 0x14 }
  - { offsetInCU: 0x1264D, offset: 0x18B59, size: 0x8, addend: 0x0, symName: __ZNSt3__17launderB7v160006IKNS_4pairIKNS_12basic_stringIcNS_11char_traitsIcEENS_9allocatorIcEEEEiEEEEPT_SC_, symObjAddr: 0x7734, symBinAddr: 0x100009E74, symSize: 0x24 }
  - { offsetInCU: 0x12685, offset: 0x18B91, size: 0x8, addend: 0x0, symName: __ZNSt3__19__launderB7v160006IKNS_4pairIKNS_12basic_stringIcNS_11char_traitsIcEENS_9allocatorIcEEEEiEEEEPT_SC_, symObjAddr: 0x7758, symBinAddr: 0x100009E98, symSize: 0x14 }
  - { offsetInCU: 0x126BD, offset: 0x18BC9, size: 0x8, addend: 0x0, symName: __ZNSt3__116__tree_prev_iterB7v160006IPNS_16__tree_node_baseIPvEEPNS_15__tree_end_nodeIS4_EEEET_T0_, symObjAddr: 0x776C, symBinAddr: 0x100009EAC, symSize: 0xA4 }
  - { offsetInCU: 0x12709, offset: 0x18C15, size: 0x8, addend: 0x0, symName: __ZNSt3__110__tree_maxB7v160006IPNS_16__tree_node_baseIPvEEEET_S5_, symObjAddr: 0x7810, symBinAddr: 0x100009F50, symSize: 0x40 }
  - { offsetInCU: 0x1273F, offset: 0x18C4B, size: 0x8, addend: 0x0, symName: __ZNSt3__120__tree_is_left_childB7v160006IPNS_16__tree_node_baseIPvEEEEbT_, symObjAddr: 0x7850, symBinAddr: 0x100009F90, symSize: 0x2C }
  - { offsetInCU: 0x12775, offset: 0x18C81, size: 0x8, addend: 0x0, symName: __ZNSt3__19__advanceB7v160006INS_21__tree_const_iteratorINS_12__value_typeINS_12basic_stringIcNS_11char_traitsIcEENS_9allocatorIcEEEEiEEPNS_11__tree_nodeIS9_PvEElEEEEvRT_NS_15iterator_traitsISF_E15difference_typeENS_26bidirectional_iterator_tagE, symObjAddr: 0x7908, symBinAddr: 0x10000A048, symSize: 0xA4 }
  - { offsetInCU: 0x127BF, offset: 0x18CCB, size: 0x8, addend: 0x0, symName: __ZNSt3__116__tree_next_iterB7v160006IPNS_15__tree_end_nodeIPNS_16__tree_node_baseIPvEEEES5_EET_T0_, symObjAddr: 0x79E4, symBinAddr: 0x10000A124, symSize: 0x80 }
  - { offsetInCU: 0x127FD, offset: 0x18D09, size: 0x8, addend: 0x0, symName: __ZNSt3__110__tree_minB7v160006IPNS_16__tree_node_baseIPvEEEET_S5_, symObjAddr: 0x7A64, symBinAddr: 0x10000A1A4, symSize: 0x40 }
  - { offsetInCU: 0x12878, offset: 0x18D84, size: 0x8, addend: 0x0, symName: __ZNSt3__112construct_atB7v160006INS_4pairIKNS_12basic_stringIcNS_11char_traitsIcEENS_9allocatorIcEEEEiEEJRKS9_EPS9_EEPT_SE_DpOT0_, symObjAddr: 0x7D9C, symBinAddr: 0x10000A4DC, symSize: 0x3C }
  - { offsetInCU: 0x128EA, offset: 0x18DF6, size: 0x8, addend: 0x0, symName: __ZNSt3__127__tree_balance_after_insertB7v160006IPNS_16__tree_node_baseIPvEEEEvT_S5_, symObjAddr: 0x7EC0, symBinAddr: 0x10000A600, symSize: 0x27C }
  - { offsetInCU: 0x1296B, offset: 0x18E77, size: 0x8, addend: 0x0, symName: __ZNSt3__118__tree_left_rotateB7v160006IPNS_16__tree_node_baseIPvEEEEvT_, symObjAddr: 0x8164, symBinAddr: 0x10000A8A4, symSize: 0xD8 }
  - { offsetInCU: 0x129AF, offset: 0x18EBB, size: 0x8, addend: 0x0, symName: __ZNSt3__119__tree_right_rotateB7v160006IPNS_16__tree_node_baseIPvEEEEvT_, symObjAddr: 0x823C, symBinAddr: 0x10000A97C, symSize: 0xCC }
  - { offsetInCU: 0x12A50, offset: 0x18F5C, size: 0x8, addend: 0x0, symName: __ZNSt3__14prevB7v160006IP4CellEENS_9enable_ifIXsr25__is_cpp17_input_iteratorIT_EE5valueES4_E4typeES4_NS_15iterator_traitsIS4_E15difference_typeE, symObjAddr: 0x86E4, symBinAddr: 0x10000AE24, symSize: 0x50 }
  - { offsetInCU: 0x12A93, offset: 0x18F9F, size: 0x8, addend: 0x0, symName: __ZNSt3__19__advanceB7v160006IP4CellEEvRT_NS_15iterator_traitsIS3_E15difference_typeENS_26random_access_iterator_tagE, symObjAddr: 0x8784, symBinAddr: 0x10000AEC4, symSize: 0x30 }
  - { offsetInCU: 0x12ADC, offset: 0x18FE8, size: 0x8, addend: 0x0, symName: __ZNSt3__119__allocator_destroyB7v160006INS_9allocatorI4CellEENS_16reverse_iteratorINS4_IPS2_EEEES7_EEvRT_T0_T1_, symObjAddr: 0x88B8, symBinAddr: 0x10000AFF8, symSize: 0x70 }
  - { offsetInCU: 0x12B42, offset: 0x1904E, size: 0x8, addend: 0x0, symName: __ZNSt3__1neB7v160006INS_16reverse_iteratorIP4CellEES4_EEbRKNS1_IT_EERKNS1_IT0_EE, symObjAddr: 0x8964, symBinAddr: 0x10000B0A4, symSize: 0x60 }
  - { offsetInCU: 0x12B8E, offset: 0x1909A, size: 0x8, addend: 0x0, symName: __ZNSt3__112__to_addressB7v160006INS_16reverse_iteratorINS1_IP4CellEEEEvEENS_5decayIDTclsr19__to_address_helperIT_EE6__callclsr3stdE7declvalIRKS7_EEEEE4typeES9_, symObjAddr: 0x89C4, symBinAddr: 0x10000B104, symSize: 0x24 }
  - { offsetInCU: 0x12BEE, offset: 0x190FA, size: 0x8, addend: 0x0, symName: __ZNSt3__14prevB7v160006INS_16reverse_iteratorIP4CellEEEENS_9enable_ifIXsr25__is_cpp17_input_iteratorIT_EE5valueES6_E4typeES6_NS_15iterator_traitsIS6_E15difference_typeE, symObjAddr: 0x8AC0, symBinAddr: 0x10000B200, symSize: 0x60 }
  - { offsetInCU: 0x12C31, offset: 0x1913D, size: 0x8, addend: 0x0, symName: __ZNSt3__19__advanceB7v160006INS_16reverse_iteratorIP4CellEEEEvRT_NS_15iterator_traitsIS5_E15difference_typeENS_26random_access_iterator_tagE, symObjAddr: 0x8B70, symBinAddr: 0x10000B2B0, symSize: 0x2C }
  - { offsetInCU: 0x12C7B, offset: 0x19187, size: 0x8, addend: 0x0, symName: __ZNSt3__1eqB7v160006IPNS_6vectorIiNS_9allocatorIiEEEEEEbRKNS_11__wrap_iterIT_EESA_, symObjAddr: 0x8FA4, symBinAddr: 0x10000B6E4, symSize: 0x48 }
  - { offsetInCU: 0x12CBE, offset: 0x191CA, size: 0x8, addend: 0x0, symName: __ZNSt3__119__debug_db_insert_cB7v160006INS_6vectorINS1_IiNS_9allocatorIiEEEENS2_IS4_EEEEEEvPT_, symObjAddr: 0x9098, symBinAddr: 0x10000B7D8, symSize: 0x10 }
  - { offsetInCU: 0x12CEF, offset: 0x191FB, size: 0x8, addend: 0x0, symName: __ZNSt3__112__to_addressB7v160006INS_6vectorIiNS_9allocatorIiEEEEEEPT_S6_, symObjAddr: 0x93CC, symBinAddr: 0x10000BB0C, symSize: 0x14 }
  - { offsetInCU: 0x12D4C, offset: 0x19258, size: 0x8, addend: 0x0, symName: __ZNSt3__112construct_atB7v160006INS_6vectorIiNS_9allocatorIiEEEEJS4_EPS4_EEPT_S7_DpOT0_, symObjAddr: 0x9458, symBinAddr: 0x10000BB98, symSize: 0x3C }
  - { offsetInCU: 0x12DBE, offset: 0x192CA, size: 0x8, addend: 0x0, symName: __ZNSt3__119__debug_db_insert_cB7v160006INS_6vectorIiNS_9allocatorIiEEEEEEvPT_, symObjAddr: 0x960C, symBinAddr: 0x10000BD4C, symSize: 0x10 }
  - { offsetInCU: 0x12DEF, offset: 0x192FB, size: 0x8, addend: 0x0, symName: __ZNSt3__115__debug_db_swapB7v160006INS_6vectorIiNS_9allocatorIiEEEEEEvPT_S6_, symObjAddr: 0x961C, symBinAddr: 0x10000BD5C, symSize: 0x14 }
  - { offsetInCU: 0x12E2E, offset: 0x1933A, size: 0x8, addend: 0x0, symName: __ZNSt3__119__allocate_at_leastB7v160006INS_9allocatorINS_6vectorIiNS1_IiEEEEEEEENS_19__allocation_resultINS_16allocator_traitsIT_E7pointerEEERS8_m, symObjAddr: 0x9CBC, symBinAddr: 0x10000C3FC, symSize: 0x40 }
  - { offsetInCU: 0x12E71, offset: 0x1937D, size: 0x8, addend: 0x0, symName: __ZNSt3__142__uninitialized_allocator_move_if_noexceptB7v160006INS_9allocatorINS_6vectorIiNS1_IiEEEEEENS_16reverse_iteratorIPS4_EES8_S8_EET2_RT_T0_T1_S9_, symObjAddr: 0x9F48, symBinAddr: 0x10000C688, symSize: 0x12C }
  - { offsetInCU: 0x12F14, offset: 0x19420, size: 0x8, addend: 0x0, symName: __ZNSt3__14swapB7v160006IPNS_6vectorIiNS_9allocatorIiEEEEEENS_9enable_ifIXaasr21is_move_constructibleIT_EE5valuesr18is_move_assignableIS7_EE5valueEvE4typeERS7_SA_, symObjAddr: 0xA0C0, symBinAddr: 0x10000C800, symSize: 0x3C }
  - { offsetInCU: 0x12F66, offset: 0x19472, size: 0x8, addend: 0x0, symName: __ZNSt3__125__debug_db_invalidate_allB7v160006INS_6vectorINS1_IiNS_9allocatorIiEEEENS2_IS4_EEEEEEvPT_, symObjAddr: 0xA1C4, symBinAddr: 0x10000C904, symSize: 0x10 }
  - { offsetInCU: 0x12F97, offset: 0x194A3, size: 0x8, addend: 0x0, symName: __ZNSt3__122__make_exception_guardB7v160006INS_29_AllocatorDestroyRangeReverseINS_9allocatorINS_6vectorIiNS2_IiEEEEEENS_16reverse_iteratorIPS5_EEEEEENS_28__exception_guard_exceptionsIT_EESC_, symObjAddr: 0xA21C, symBinAddr: 0x10000C95C, symSize: 0x4C }
  - { offsetInCU: 0x12FCD, offset: 0x194D9, size: 0x8, addend: 0x0, symName: __ZNSt3__1neB7v160006IPNS_6vectorIiNS_9allocatorIiEEEES5_EEbRKNS_16reverse_iteratorIT_EERKNS6_IT0_EE, symObjAddr: 0xA2AC, symBinAddr: 0x10000C9EC, symSize: 0x48 }
  - { offsetInCU: 0x13019, offset: 0x19525, size: 0x8, addend: 0x0, symName: __ZNSt3__112__to_addressB7v160006INS_16reverse_iteratorIPNS_6vectorIiNS_9allocatorIiEEEEEEvEENS_5decayIDTclsr19__to_address_helperIT_EE6__callclsr3stdE7declvalIRKS9_EEEEE4typeESB_, symObjAddr: 0xA2F4, symBinAddr: 0x10000CA34, symSize: 0x24 }
  - { offsetInCU: 0x13079, offset: 0x19585, size: 0x8, addend: 0x0, symName: __ZNSt3__14prevB7v160006IPNS_6vectorIiNS_9allocatorIiEEEEEENS_9enable_ifIXsr25__is_cpp17_input_iteratorIT_EE5valueES7_E4typeES7_NS_15iterator_traitsIS7_E15difference_typeE, symObjAddr: 0xA4A8, symBinAddr: 0x10000CBE8, symSize: 0x50 }
  - { offsetInCU: 0x130BC, offset: 0x195C8, size: 0x8, addend: 0x0, symName: __ZNSt3__19__advanceB7v160006IPNS_6vectorIiNS_9allocatorIiEEEEEEvRT_NS_15iterator_traitsIS6_E15difference_typeENS_26random_access_iterator_tagE, symObjAddr: 0xA548, symBinAddr: 0x10000CC88, symSize: 0x30 }
  - { offsetInCU: 0x13105, offset: 0x19611, size: 0x8, addend: 0x0, symName: __ZNSt3__119__allocator_destroyB7v160006INS_9allocatorINS_6vectorIiNS1_IiEEEEEENS_16reverse_iteratorINS6_IPS4_EEEES9_EEvRT_T0_T1_, symObjAddr: 0xA67C, symBinAddr: 0x10000CDBC, symSize: 0x70 }
  - { offsetInCU: 0x1316B, offset: 0x19677, size: 0x8, addend: 0x0, symName: __ZNSt3__1neB7v160006INS_16reverse_iteratorIPNS_6vectorIiNS_9allocatorIiEEEEEES7_EEbRKNS1_IT_EERKNS1_IT0_EE, symObjAddr: 0xA728, symBinAddr: 0x10000CE68, symSize: 0x60 }
  - { offsetInCU: 0x131B7, offset: 0x196C3, size: 0x8, addend: 0x0, symName: __ZNSt3__112__to_addressB7v160006INS_16reverse_iteratorINS1_IPNS_6vectorIiNS_9allocatorIiEEEEEEEEvEENS_5decayIDTclsr19__to_address_helperIT_EE6__callclsr3stdE7declvalIRKSA_EEEEE4typeESC_, symObjAddr: 0xA7B0, symBinAddr: 0x10000CEF0, symSize: 0x24 }
  - { offsetInCU: 0x131ED, offset: 0x196F9, size: 0x8, addend: 0x0, symName: __ZNSt3__110destroy_atB7v160006INS_6vectorIiNS_9allocatorIiEEEELi0EEEvPT_, symObjAddr: 0xA828, symBinAddr: 0x10000CF68, symSize: 0x24 }
  - { offsetInCU: 0x13226, offset: 0x19732, size: 0x8, addend: 0x0, symName: __ZNSt3__112__destroy_atB7v160006INS_6vectorIiNS_9allocatorIiEEEELi0EEEvPT_, symObjAddr: 0xA84C, symBinAddr: 0x10000CF8C, symSize: 0x24 }
  - { offsetInCU: 0x13289, offset: 0x19795, size: 0x8, addend: 0x0, symName: __ZNSt3__14prevB7v160006INS_16reverse_iteratorIPNS_6vectorIiNS_9allocatorIiEEEEEEEENS_9enable_ifIXsr25__is_cpp17_input_iteratorIT_EE5valueES9_E4typeES9_NS_15iterator_traitsIS9_E15difference_typeE, symObjAddr: 0xA8F4, symBinAddr: 0x10000D034, symSize: 0x60 }
  - { offsetInCU: 0x132CC, offset: 0x197D8, size: 0x8, addend: 0x0, symName: __ZNSt3__19__advanceB7v160006INS_16reverse_iteratorIPNS_6vectorIiNS_9allocatorIiEEEEEEEEvRT_NS_15iterator_traitsIS8_E15difference_typeENS_26random_access_iterator_tagE, symObjAddr: 0xA9A4, symBinAddr: 0x10000D0E4, symSize: 0x2C }
  - { offsetInCU: 0x13316, offset: 0x19822, size: 0x8, addend: 0x0, symName: __ZNSt3__122__make_exception_guardB7v160006INS_6vectorIiNS_9allocatorIiEEE16__destroy_vectorEEENS_28__exception_guard_exceptionsIT_EES7_, symObjAddr: 0xAE3C, symBinAddr: 0x10000D57C, symSize: 0x40 }
  - { offsetInCU: 0x1334B, offset: 0x19857, size: 0x8, addend: 0x0, symName: __ZNSt3__119__allocate_at_leastB7v160006INS_9allocatorIiEEEENS_19__allocation_resultINS_16allocator_traitsIT_E7pointerEEERS5_m, symObjAddr: 0xB220, symBinAddr: 0x10000D960, symSize: 0x40 }
  - { offsetInCU: 0x1338E, offset: 0x1989A, size: 0x8, addend: 0x0, symName: __ZNSt3__112__to_addressB7v160006IiEEPT_S2_, symObjAddr: 0xB474, symBinAddr: 0x10000DBB4, symSize: 0x14 }
  - { offsetInCU: 0x133C4, offset: 0x198D0, size: 0x8, addend: 0x0, symName: __ZNSt3__130__uninitialized_allocator_copyB7v160006INS_9allocatorIiEEiiLPv0EEEPT0_RT_PKS4_S9_S5_, symObjAddr: 0xB524, symBinAddr: 0x10000DC64, symSize: 0x38 }
  - { offsetInCU: 0x1343E, offset: 0x1994A, size: 0x8, addend: 0x0, symName: __ZNSt3__14copyB7v160006IPKiPiEET0_T_S5_S4_, symObjAddr: 0xB5CC, symBinAddr: 0x10000DD0C, symSize: 0x40 }
  - { offsetInCU: 0x13498, offset: 0x199A4, size: 0x8, addend: 0x0, symName: __ZNSt3__16__copyB7v160006INS_17_ClassicAlgPolicyEPKiS3_PiEENS_4pairIT0_T2_EES6_T1_S7_, symObjAddr: 0xB60C, symBinAddr: 0x10000DD4C, symSize: 0x44 }
  - { offsetInCU: 0x13504, offset: 0x19A10, size: 0x8, addend: 0x0, symName: __ZNSt3__123__dispatch_copy_or_moveB7v160006INS_17_ClassicAlgPolicyENS_11__copy_loopIS1_EENS_14__copy_trivialEPKiS6_PiEENS_4pairIT2_T4_EES9_T3_SA_, symObjAddr: 0xB650, symBinAddr: 0x10000DD90, symSize: 0x44 }
  - { offsetInCU: 0x13582, offset: 0x19A8E, size: 0x8, addend: 0x0, symName: __ZNSt3__121__unwrap_and_dispatchB7v160006INS_10__overloadINS_11__copy_loopINS_17_ClassicAlgPolicyEEENS_14__copy_trivialEEEPKiS8_PiLi0EEENS_4pairIT0_T2_EESB_T1_SC_, symObjAddr: 0xB694, symBinAddr: 0x10000DDD4, symSize: 0xB4 }
  - { offsetInCU: 0x13611, offset: 0x19B1D, size: 0x8, addend: 0x0, symName: __ZNSt3__114__unwrap_rangeB7v160006IPKiS2_EEDaT_T0_, symObjAddr: 0xB748, symBinAddr: 0x10000DE88, symSize: 0x3C }
  - { offsetInCU: 0x137A7, offset: 0x19CB3, size: 0x8, addend: 0x0, symName: __ZNSt3__113__unwrap_iterB7v160006IPiNS_18__unwrap_iter_implIS1_Lb1EEELi0EEEDTclsrT0_8__unwrapclsr3stdE7declvalIT_EEEES5_, symObjAddr: 0xB7CC, symBinAddr: 0x10000DF0C, symSize: 0x24 }
  - { offsetInCU: 0x137EC, offset: 0x19CF8, size: 0x8, addend: 0x0, symName: __ZNSt3__19make_pairB7v160006IPKiPiEENS_4pairINS_18__unwrap_ref_decayIT_E4typeENS5_IT0_E4typeEEEOS6_OS9_, symObjAddr: 0xB7F0, symBinAddr: 0x10000DF30, symSize: 0x38 }
  - { offsetInCU: 0x1383C, offset: 0x19D48, size: 0x8, addend: 0x0, symName: __ZNSt3__114__rewrap_rangeB7v160006IPKiS2_S2_EET0_S3_T1_, symObjAddr: 0xB828, symBinAddr: 0x10000DF68, symSize: 0x2C }
  - { offsetInCU: 0x13891, offset: 0x19D9D, size: 0x8, addend: 0x0, symName: __ZNSt3__113__rewrap_iterB7v160006IPiS1_NS_18__unwrap_iter_implIS1_Lb1EEEEET_S4_T0_, symObjAddr: 0xB854, symBinAddr: 0x10000DF94, symSize: 0x3C }
  - { offsetInCU: 0x13A02, offset: 0x19F0E, size: 0x8, addend: 0x0, symName: __ZNSt3__113__unwrap_iterB7v160006IPKiNS_18__unwrap_iter_implIS2_Lb1EEELi0EEEDTclsrT0_8__unwrapclsr3stdE7declvalIT_EEEES6_, symObjAddr: 0xB8E8, symBinAddr: 0x10000E028, symSize: 0x24 }
  - { offsetInCU: 0x13A9A, offset: 0x19FA6, size: 0x8, addend: 0x0, symName: __ZNSt3__112__to_addressB7v160006IKiEEPT_S3_, symObjAddr: 0xB96C, symBinAddr: 0x10000E0AC, symSize: 0x14 }
  - { offsetInCU: 0x13AD0, offset: 0x19FDC, size: 0x8, addend: 0x0, symName: __ZNSt3__119__copy_trivial_implB7v160006IKiiEENS_4pairIPT_PT0_EES4_S4_S6_, symObjAddr: 0xB9B4, symBinAddr: 0x10000E0F4, symSize: 0x84 }
  - { offsetInCU: 0x13B38, offset: 0x1A044, size: 0x8, addend: 0x0, symName: __ZNSt3__19make_pairB7v160006IRPKiPiEENS_4pairINS_18__unwrap_ref_decayIT_E4typeENS6_IT0_E4typeEEEOS7_OSA_, symObjAddr: 0xBA38, symBinAddr: 0x10000E178, symSize: 0x38 }
  - { offsetInCU: 0x13BDB, offset: 0x1A0E7, size: 0x8, addend: 0x0, symName: __ZNSt3__113__rewrap_iterB7v160006IPKiS2_NS_18__unwrap_iter_implIS2_Lb1EEEEET_S5_T0_, symObjAddr: 0xBBA0, symBinAddr: 0x10000E2E0, symSize: 0x3C }
  - { offsetInCU: 0x13C30, offset: 0x1A13C, size: 0x8, addend: 0x0, symName: __ZNSt3__118__debug_db_erase_cB7v160006INS_6vectorIiNS_9allocatorIiEEEEEEvPT_, symObjAddr: 0xBE40, symBinAddr: 0x10000E580, symSize: 0x10 }
  - { offsetInCU: 0x13C61, offset: 0x1A16D, size: 0x8, addend: 0x0, symName: __ZNSt3__110destroy_atB7v160006IiLi0EEEvPT_, symObjAddr: 0xBF88, symBinAddr: 0x10000E6C8, symSize: 0x24 }
  - { offsetInCU: 0x13C9A, offset: 0x1A1A6, size: 0x8, addend: 0x0, symName: __ZNSt3__112__destroy_atB7v160006IiLi0EEEvPT_, symObjAddr: 0xBFAC, symBinAddr: 0x10000E6EC, symSize: 0x10 }
  - { offsetInCU: 0x13CD2, offset: 0x1A1DE, size: 0x8, addend: 0x0, symName: __ZNSt3__118__debug_db_erase_cB7v160006INS_6vectorINS1_IiNS_9allocatorIiEEEENS2_IS4_EEEEEEvPT_, symObjAddr: 0xC174, symBinAddr: 0x10000E8B4, symSize: 0x10 }
  - { offsetInCU: 0x13D03, offset: 0x1A20F, size: 0x8, addend: 0x0, symName: __ZNSt3__130__uninitialized_allocator_copyB7v160006INS_9allocatorIiEEPiS3_S3_EET2_RT_T0_T1_S4_, symObjAddr: 0xC3E4, symBinAddr: 0x10000EB24, symSize: 0xF4 }
  - { offsetInCU: 0x13DA4, offset: 0x1A2B0, size: 0x8, addend: 0x0, symName: __ZNSt3__122__make_exception_guardB7v160006INS_29_AllocatorDestroyRangeReverseINS_9allocatorIiEEPiEEEENS_28__exception_guard_exceptionsIT_EES7_, symObjAddr: 0xC4D8, symBinAddr: 0x10000EC18, symSize: 0x4C }
  - { offsetInCU: 0x13E01, offset: 0x1A30D, size: 0x8, addend: 0x0, symName: __ZNSt3__112construct_atB7v160006IiJRiEPiEEPT_S4_DpOT0_, symObjAddr: 0xC67C, symBinAddr: 0x10000EDBC, symSize: 0x2C }
  - { offsetInCU: 0x13E74, offset: 0x1A380, size: 0x8, addend: 0x0, symName: __ZNSt3__119__allocator_destroyB7v160006INS_9allocatorIiEENS_16reverse_iteratorIPiEES5_EEvRT_T0_T1_, symObjAddr: 0xC760, symBinAddr: 0x10000EEA0, symSize: 0x70 }
  - { offsetInCU: 0x13ED8, offset: 0x1A3E4, size: 0x8, addend: 0x0, symName: __ZNSt3__1neB7v160006IPiS1_EEbRKNS_16reverse_iteratorIT_EERKNS2_IT0_EE, symObjAddr: 0xC804, symBinAddr: 0x10000EF44, symSize: 0x48 }
  - { offsetInCU: 0x13F24, offset: 0x1A430, size: 0x8, addend: 0x0, symName: __ZNSt3__112__to_addressB7v160006INS_16reverse_iteratorIPiEEvEENS_5decayIDTclsr19__to_address_helperIT_EE6__callclsr3stdE7declvalIRKS5_EEEEE4typeES7_, symObjAddr: 0xC84C, symBinAddr: 0x10000EF8C, symSize: 0x24 }
  - { offsetInCU: 0x13F84, offset: 0x1A490, size: 0x8, addend: 0x0, symName: __ZNSt3__14prevB7v160006IPiEENS_9enable_ifIXsr25__is_cpp17_input_iteratorIT_EE5valueES3_E4typeES3_NS_15iterator_traitsIS3_E15difference_typeE, symObjAddr: 0xC90C, symBinAddr: 0x10000F04C, symSize: 0x50 }
  - { offsetInCU: 0x13FC7, offset: 0x1A4D3, size: 0x8, addend: 0x0, symName: __ZNSt3__19__advanceB7v160006IPiEEvRT_NS_15iterator_traitsIS2_E15difference_typeENS_26random_access_iterator_tagE, symObjAddr: 0xC9AC, symBinAddr: 0x10000F0EC, symSize: 0x28 }
  - { offsetInCU: 0x14010, offset: 0x1A51C, size: 0x8, addend: 0x0, symName: __ZNSt3__116__pad_and_outputB7v160006IcNS_11char_traitsIcEEEENS_19ostreambuf_iteratorIT_T0_EES6_PKS4_S8_S8_RNS_8ios_baseES4_, symObjAddr: 0xCC38, symBinAddr: 0x10000F344, symSize: 0x240 }
  - { offsetInCU: 0x140E5, offset: 0x1A5F1, size: 0x8, addend: 0x0, symName: __ZNSt3__112__to_addressB7v160006IcEEPT_S2_, symObjAddr: 0xD1B8, symBinAddr: 0x10000F7BC, symSize: 0x14 }
  - { offsetInCU: 0x1411B, offset: 0x1A627, size: 0x8, addend: 0x0, symName: __ZNSt3__19use_facetB7v160006INS_5ctypeIcEEEERKT_RKNS_6localeE, symObjAddr: 0xD400, symBinAddr: 0x10000FA04, symSize: 0x2C }
  - { offsetInCU: 0x1462B, offset: 0x1AB37, size: 0x8, addend: 0x0, symName: __ZNSt3__116forward_as_tupleB7v160006IJRKNS_12basic_stringIcNS_11char_traitsIcEENS_9allocatorIcEEEEEEENS_5tupleIJDpOT_EEESC_, symObjAddr: 0xD5BC, symBinAddr: 0x10000FB9C, symSize: 0x2C }
  - { offsetInCU: 0x14665, offset: 0x1AB71, size: 0x8, addend: 0x0, symName: __ZNSt3__116forward_as_tupleB7v160006IJEEENS_5tupleIJDpOT_EEES4_, symObjAddr: 0xD5E8, symBinAddr: 0x10000FBC8, symSize: 0x4 }
  - { offsetInCU: 0x1468A, offset: 0x1AB96, size: 0x8, addend: 0x0, symName: __ZNSt3__112construct_atB7v160006INS_4pairIKNS_12basic_stringIcNS_11char_traitsIcEENS_9allocatorIcEEEEiEEJRKNS_21piecewise_construct_tENS_5tupleIJRS8_EEENSD_IJEEEEPS9_EEPT_SJ_DpOT0_, symObjAddr: 0xD778, symBinAddr: 0x10000FD58, symSize: 0x50 }
  - { offsetInCU: 0x1472E, offset: 0x1AC3A, size: 0x8, addend: 0x0, symName: __ZNSt3__13getB7v160006ILm0EJRKNS_12basic_stringIcNS_11char_traitsIcEENS_9allocatorIcEEEEEEERNS_13tuple_elementIXT_ENS_5tupleIJDpT0_EEEE4typeERSD_, symObjAddr: 0xD888, symBinAddr: 0x10000FE68, symSize: 0x24 }
  - { offsetInCU: 0x147C9, offset: 0x1ACD5, size: 0x8, addend: 0x0, symName: __ZNSt3__110destroy_atB7v160006INS_4pairIKiiEELi0EEEvPT_, symObjAddr: 0xDF1C, symBinAddr: 0x1000104FC, symSize: 0x24 }
  - { offsetInCU: 0x14802, offset: 0x1AD0E, size: 0x8, addend: 0x0, symName: __ZNSt3__112__destroy_atB7v160006INS_4pairIKiiEELi0EEEvPT_, symObjAddr: 0xDF40, symBinAddr: 0x100010520, symSize: 0x10 }
  - { offsetInCU: 0x1483A, offset: 0x1AD46, size: 0x8, addend: 0x0, symName: __ZNSt3__17launderB7v160006INS_4pairIKiiEEEEPT_S5_, symObjAddr: 0xDF74, symBinAddr: 0x100010554, symSize: 0x24 }
  - { offsetInCU: 0x14872, offset: 0x1AD7E, size: 0x8, addend: 0x0, symName: __ZNSt3__19__launderB7v160006INS_4pairIKiiEEEEPT_S5_, symObjAddr: 0xDF98, symBinAddr: 0x100010578, symSize: 0x14 }
  - { offsetInCU: 0x148AA, offset: 0x1ADB6, size: 0x8, addend: 0x0, symName: __ZNSt3__116forward_as_tupleB7v160006IJRKiEEENS_5tupleIJDpOT_EEES6_, symObjAddr: 0xE140, symBinAddr: 0x100010720, symSize: 0x2C }
  - { offsetInCU: 0x148E4, offset: 0x1ADF0, size: 0x8, addend: 0x0, symName: __ZNSt3__17launderB7v160006IKNS_4pairIKiiEEEEPT_S6_, symObjAddr: 0xE784, symBinAddr: 0x100010D64, symSize: 0x24 }
  - { offsetInCU: 0x1491C, offset: 0x1AE28, size: 0x8, addend: 0x0, symName: __ZNSt3__19__launderB7v160006IKNS_4pairIKiiEEEEPT_S6_, symObjAddr: 0xE7A8, symBinAddr: 0x100010D88, symSize: 0x14 }
  - { offsetInCU: 0x14999, offset: 0x1AEA5, size: 0x8, addend: 0x0, symName: __ZNSt3__112construct_atB7v160006INS_4pairIKiiEEJRKNS_21piecewise_construct_tENS_5tupleIJRS2_EEENS7_IJEEEEPS3_EEPT_SD_DpOT0_, symObjAddr: 0xEAC8, symBinAddr: 0x1000110A8, symSize: 0x50 }
  - { offsetInCU: 0x14A31, offset: 0x1AF3D, size: 0x8, addend: 0x0, symName: __ZNSt3__13getB7v160006ILm0EJRKiEEERNS_13tuple_elementIXT_ENS_5tupleIJDpT0_EEEE4typeERS7_, symObjAddr: 0xEBE0, symBinAddr: 0x1000111C0, symSize: 0x24 }
  - { offsetInCU: 0x14ABD, offset: 0x1AFC9, size: 0x8, addend: 0x0, symName: __ZNSt3__1neB7v160006ERKNS_15__tree_iteratorINS_12__value_typeIiiEEPNS_11__tree_nodeIS2_PvEElEES9_, symObjAddr: 0xF0D8, symBinAddr: 0x1000116B8, symSize: 0x34 }
  - { offsetInCU: 0x14AFB, offset: 0x1B007, size: 0x8, addend: 0x0, symName: __ZNSt3__1eqB7v160006ERKNS_15__tree_iteratorINS_12__value_typeIiiEEPNS_11__tree_nodeIS2_PvEElEES9_, symObjAddr: 0xF10C, symBinAddr: 0x1000116EC, symSize: 0x30 }
  - { offsetInCU: 0x15165, offset: 0x1B671, size: 0x8, addend: 0x0, symName: __ZSt28__throw_bad_array_new_lengthB7v160006v, symObjAddr: 0x3824, symBinAddr: 0x100005F64, symSize: 0x34 }
  - { offsetInCU: 0x15BE3, offset: 0x1C0EF, size: 0x8, addend: 0x0, symName: __ZNSt3__16vectorINS0_I4CellNS_9allocatorIS1_EEEENS2_IS4_EEE26__swap_out_circular_bufferERNS_14__split_bufferIS4_RS5_EE, symObjAddr: 0x2E1C, symBinAddr: 0x10000555C, symSize: 0x118 }
  - { offsetInCU: 0x15C75, offset: 0x1C181, size: 0x8, addend: 0x0, symName: __ZNSt3__16vectorI4CellNS_9allocatorIS1_EEE26__swap_out_circular_bufferERNS_14__split_bufferIS1_RS3_EE, symObjAddr: 0x4DFC, symBinAddr: 0x10000753C, symSize: 0x118 }
  - { offsetInCU: 0x15FA5, offset: 0x1C4B1, size: 0x8, addend: 0x0, symName: __ZNSt3__16vectorINS0_IiNS_9allocatorIiEEEENS1_IS3_EEE26__swap_out_circular_bufferERNS_14__split_bufferIS3_RS4_EE, symObjAddr: 0x98B8, symBinAddr: 0x10000BFF8, symSize: 0x118 }
  - { offsetInCU: 0x1833F, offset: 0x1E84B, size: 0x8, addend: 0x0, symName: __ZN16CellularAutomataC2Ev, symObjAddr: 0x0, symBinAddr: 0x10000274C, symSize: 0x2C }
  - { offsetInCU: 0x1836A, offset: 0x1E876, size: 0x8, addend: 0x0, symName: __ZNSt3__16vectorINS0_I4CellNS_9allocatorIS1_EEEENS2_IS4_EEEC1B7v160006Ev, symObjAddr: 0x2C, symBinAddr: 0x100002778, symSize: 0x2C }
  - { offsetInCU: 0x18392, offset: 0x1E89E, size: 0x8, addend: 0x0, symName: __ZN16CellularAutomataC1Ev, symObjAddr: 0x58, symBinAddr: 0x1000027A4, symSize: 0x2C }
  - { offsetInCU: 0x183BD, offset: 0x1E8C9, size: 0x8, addend: 0x0, symName: __ZN16CellularAutomataD2Ev, symObjAddr: 0x84, symBinAddr: 0x1000027D0, symSize: 0x2C }
  - { offsetInCU: 0x183E8, offset: 0x1E8F4, size: 0x8, addend: 0x0, symName: __ZNSt3__16vectorINS0_I4CellNS_9allocatorIS1_EEEENS2_IS4_EEED1B7v160006Ev, symObjAddr: 0xB0, symBinAddr: 0x1000027FC, symSize: 0x2C }
  - { offsetInCU: 0x18410, offset: 0x1E91C, size: 0x8, addend: 0x0, symName: __ZN16CellularAutomataD1Ev, symObjAddr: 0xDC, symBinAddr: 0x100002828, symSize: 0x2C }
  - { offsetInCU: 0x1843A, offset: 0x1E946, size: 0x8, addend: 0x0, symName: __Z18CA_setup_dimensionR16CellularAutomataiiii, symObjAddr: 0x108, symBinAddr: 0x100002854, symSize: 0x1E0 }
  - { offsetInCU: 0x184BC, offset: 0x1E9C8, size: 0x8, addend: 0x0, symName: __ZNSt3__113basic_ostreamIcNS_11char_traitsIcEEElsB7v160006EPFRS3_S4_E, symObjAddr: 0x330, symBinAddr: 0x100002A7C, symSize: 0x2C }
  - { offsetInCU: 0x184EF, offset: 0x1E9FB, size: 0x8, addend: 0x0, symName: __ZNSt3__16vectorINS0_I4CellNS_9allocatorIS1_EEEENS2_IS4_EEE6resizeEm, symObjAddr: 0x3B4, symBinAddr: 0x100002B00, symSize: 0x9C }
  - { offsetInCU: 0x18535, offset: 0x1EA41, size: 0x8, addend: 0x0, symName: __ZNSt3__16vectorINS0_I4CellNS_9allocatorIS1_EEEENS2_IS4_EEEixB7v160006Em, symObjAddr: 0x450, symBinAddr: 0x100002B9C, symSize: 0x2C }
  - { offsetInCU: 0x1856B, offset: 0x1EA77, size: 0x8, addend: 0x0, symName: __ZNSt3__16vectorI4CellNS_9allocatorIS1_EEE6resizeEm, symObjAddr: 0x47C, symBinAddr: 0x100002BC8, symSize: 0x9C }
  - { offsetInCU: 0x185B0, offset: 0x1EABC, size: 0x8, addend: 0x0, symName: __Z21CA_setup_neighborhoodR16CellularAutomatai, symObjAddr: 0x518, symBinAddr: 0x100002C64, symSize: 0xE0 }
  - { offsetInCU: 0x185EA, offset: 0x1EAF6, size: 0x8, addend: 0x0, symName: __Z18CA_setup_boundtypeR16CellularAutomataii, symObjAddr: 0x5F8, symBinAddr: 0x100002D44, symSize: 0x150 }
  - { offsetInCU: 0x18632, offset: 0x1EB3E, size: 0x8, addend: 0x0, symName: __Z22CA_setup_cell_featuresR16CellularAutomataNSt3__16vectorINS2_IiNS1_9allocatorIiEEEENS3_IS5_EEEENS1_12basic_stringIcNS1_11char_traitsIcEENS3_IcEEEEi, symObjAddr: 0x748, symBinAddr: 0x100002E94, symSize: 0x1AC }
  - { offsetInCU: 0x18709, offset: 0x1EC15, size: 0x8, addend: 0x0, symName: __ZNSt3__16vectorINS0_IiNS_9allocatorIiEEEENS1_IS3_EEE5beginB7v160006Ev, symObjAddr: 0x8F4, symBinAddr: 0x100003040, symSize: 0x30 }
  - { offsetInCU: 0x18730, offset: 0x1EC3C, size: 0x8, addend: 0x0, symName: __ZNSt3__16vectorINS0_IiNS_9allocatorIiEEEENS1_IS3_EEE3endB7v160006Ev, symObjAddr: 0x924, symBinAddr: 0x100003070, symSize: 0x30 }
  - { offsetInCU: 0x18757, offset: 0x1EC63, size: 0x8, addend: 0x0, symName: __ZNKSt3__111__wrap_iterIPNS_6vectorIiNS_9allocatorIiEEEEEdeB7v160006Ev, symObjAddr: 0x988, symBinAddr: 0x1000030D4, symSize: 0x18 }
  - { offsetInCU: 0x1877C, offset: 0x1EC88, size: 0x8, addend: 0x0, symName: __ZNKSt3__16vectorIiNS_9allocatorIiEEEixB7v160006Em, symObjAddr: 0x9A0, symBinAddr: 0x1000030EC, symSize: 0x24 }
  - { offsetInCU: 0x187B2, offset: 0x1ECBE, size: 0x8, addend: 0x0, symName: __ZNSt3__16vectorI4CellNS_9allocatorIS1_EEEixB7v160006Em, symObjAddr: 0x9C4, symBinAddr: 0x100003110, symSize: 0x2C }
  - { offsetInCU: 0x187E8, offset: 0x1ECF4, size: 0x8, addend: 0x0, symName: __ZNSt3__13mapINS_12basic_stringIcNS_11char_traitsIcEENS_9allocatorIcEEEEiNS_4lessIS6_EENS4_INS_4pairIKS6_iEEEEEixERSA_, symObjAddr: 0x9F0, symBinAddr: 0x10000313C, symSize: 0x80 }
  - { offsetInCU: 0x1881E, offset: 0x1ED2A, size: 0x8, addend: 0x0, symName: __ZNSt3__111__wrap_iterIPNS_6vectorIiNS_9allocatorIiEEEEEppB7v160006Ev, symObjAddr: 0xA70, symBinAddr: 0x1000031BC, symSize: 0x20 }
  - { offsetInCU: 0x18842, offset: 0x1ED4E, size: 0x8, addend: 0x0, symName: __Z12CA_init_condR16CellularAutomataNSt3__16vectorIiNS1_9allocatorIiEEEENS1_12basic_stringIcNS1_11char_traitsIcEENS3_IcEEEEdi, symObjAddr: 0xADC, symBinAddr: 0x100003228, symSize: 0x170 }
  - { offsetInCU: 0x188D3, offset: 0x1EDDF, size: 0x8, addend: 0x0, symName: __ZNSt3__16vectorIiNS_9allocatorIiEEEixB7v160006Em, symObjAddr: 0xC4C, symBinAddr: 0x100003398, symSize: 0x24 }
  - { offsetInCU: 0x18908, offset: 0x1EE14, size: 0x8, addend: 0x0, symName: __Z13CA_setup_ruleR16CellularAutomatai, symObjAddr: 0xC70, symBinAddr: 0x1000033BC, symSize: 0x8C }
  - { offsetInCU: 0x18942, offset: 0x1EE4E, size: 0x8, addend: 0x0, symName: __Z19CA_setup_rule_wprobR16CellularAutomataid, symObjAddr: 0xCFC, symBinAddr: 0x100003448, symSize: 0xD0 }
  - { offsetInCU: 0x18998, offset: 0x1EEA4, size: 0x8, addend: 0x0, symName: __Z16get_neighborhoodR16CellularAutomataNSt3__16vectorIiNS1_9allocatorIiEEEE, symObjAddr: 0xDCC, symBinAddr: 0x100003518, symSize: 0x360 }
  - { offsetInCU: 0x18A74, offset: 0x1EF80, size: 0x8, addend: 0x0, symName: __ZNSt3__16vectorINS0_IiNS_9allocatorIiEEEENS1_IS3_EEEC1B7v160006Ev, symObjAddr: 0x112C, symBinAddr: 0x100003878, symSize: 0x2C }
  - { offsetInCU: 0x18A9C, offset: 0x1EFA8, size: 0x8, addend: 0x0, symName: __ZNSt3__16vectorINS0_IiNS_9allocatorIiEEEENS1_IS3_EEE9push_backB7v160006EOS3_, symObjAddr: 0x1158, symBinAddr: 0x1000038A4, symSize: 0x6C }
  - { offsetInCU: 0x18AD2, offset: 0x1EFDE, size: 0x8, addend: 0x0, symName: __ZNSt3__16vectorIiNS_9allocatorIiEEEC1B7v160006ESt16initializer_listIiE, symObjAddr: 0x11C4, symBinAddr: 0x100003910, symSize: 0x3C }
  - { offsetInCU: 0x18B0C, offset: 0x1F018, size: 0x8, addend: 0x0, symName: __ZNSt3__16vectorIiNS_9allocatorIiEEED1B7v160006Ev, symObjAddr: 0x1200, symBinAddr: 0x10000394C, symSize: 0x2C }
  - { offsetInCU: 0x18B34, offset: 0x1F040, size: 0x8, addend: 0x0, symName: __ZNSt3__16vectorINS0_IiNS_9allocatorIiEEEENS1_IS3_EEED1B7v160006Ev, symObjAddr: 0x122C, symBinAddr: 0x100003978, symSize: 0x2C }
  - { offsetInCU: 0x18B5B, offset: 0x1F067, size: 0x8, addend: 0x0, symName: __Z13majority_ruleR16CellularAutomataNSt3__16vectorIiNS1_9allocatorIiEEEE, symObjAddr: 0x1258, symBinAddr: 0x1000039A4, symSize: 0x2EC }
  - { offsetInCU: 0x18CB1, offset: 0x1F1BD, size: 0x8, addend: 0x0, symName: __ZNSt3__16vectorIiNS_9allocatorIiEEEC1ERKS3_, symObjAddr: 0x1544, symBinAddr: 0x100003C90, symSize: 0x34 }
  - { offsetInCU: 0x18CEB, offset: 0x1F1F7, size: 0x8, addend: 0x0, symName: __ZNSt3__13mapIiiNS_4lessIiEENS_9allocatorINS_4pairIKiiEEEEEC1B7v160006Ev, symObjAddr: 0x1578, symBinAddr: 0x100003CC4, symSize: 0x2C }
  - { offsetInCU: 0x18D13, offset: 0x1F21F, size: 0x8, addend: 0x0, symName: __ZNSt3__13mapIiiNS_4lessIiEENS_9allocatorINS_4pairIKiiEEEEEixERS5_, symObjAddr: 0x15A4, symBinAddr: 0x100003CF0, symSize: 0x80 }
  - { offsetInCU: 0x18D49, offset: 0x1F255, size: 0x8, addend: 0x0, symName: __ZNSt3__13mapIiiNS_4lessIiEENS_9allocatorINS_4pairIKiiEEEEE5beginB7v160006Ev, symObjAddr: 0x1624, symBinAddr: 0x100003D70, symSize: 0x38 }
  - { offsetInCU: 0x18D6E, offset: 0x1F27A, size: 0x8, addend: 0x0, symName: __ZNSt3__13mapIiiNS_4lessIiEENS_9allocatorINS_4pairIKiiEEEEE3endB7v160006Ev, symObjAddr: 0x165C, symBinAddr: 0x100003DA8, symSize: 0x38 }
  - { offsetInCU: 0x18D93, offset: 0x1F29F, size: 0x8, addend: 0x0, symName: __ZNKSt3__114__map_iteratorINS_15__tree_iteratorINS_12__value_typeIiiEEPNS_11__tree_nodeIS3_PvEElEEEdeB7v160006Ev, symObjAddr: 0x16C4, symBinAddr: 0x100003E10, symSize: 0x28 }
  - { offsetInCU: 0x18DB8, offset: 0x1F2C4, size: 0x8, addend: 0x0, symName: __ZNSt3__114__map_iteratorINS_15__tree_iteratorINS_12__value_typeIiiEEPNS_11__tree_nodeIS3_PvEElEEEppB7v160006Ev, symObjAddr: 0x16EC, symBinAddr: 0x100003E38, symSize: 0x2C }
  - { offsetInCU: 0x18DDD, offset: 0x1F2E9, size: 0x8, addend: 0x0, symName: __ZNSt3__13mapIiiNS_4lessIiEENS_9allocatorINS_4pairIKiiEEEEED1B7v160006Ev, symObjAddr: 0x1718, symBinAddr: 0x100003E64, symSize: 0x2C }
  - { offsetInCU: 0x18E04, offset: 0x1F310, size: 0x8, addend: 0x0, symName: __Z13CA_init_stateR16CellularAutomatadi, symObjAddr: 0x1744, symBinAddr: 0x100003E90, symSize: 0x118 }
  - { offsetInCU: 0x18EA4, offset: 0x1F3B0, size: 0x8, addend: 0x0, symName: __ZNSt3__16vectorINS0_I4CellNS_9allocatorIS1_EEEENS2_IS4_EEEC2B7v160006Ev, symObjAddr: 0x185C, symBinAddr: 0x100003FA8, symSize: 0x58 }
  - { offsetInCU: 0x18ED6, offset: 0x1F3E2, size: 0x8, addend: 0x0, symName: __ZNSt3__117__compressed_pairIPNS_6vectorI4CellNS_9allocatorIS2_EEEENS3_IS5_EEEC1B7v160006IDnNS_18__default_init_tagEEEOT_OT0_, symObjAddr: 0x18B4, symBinAddr: 0x100004000, symSize: 0x3C }
  - { offsetInCU: 0x18F2C, offset: 0x1F438, size: 0x8, addend: 0x0, symName: __ZNSt3__117__compressed_pairIPNS_6vectorI4CellNS_9allocatorIS2_EEEENS3_IS5_EEEC2B7v160006IDnNS_18__default_init_tagEEEOT_OT0_, symObjAddr: 0x190C, symBinAddr: 0x10000404C, symSize: 0x40 }
  - { offsetInCU: 0x18F82, offset: 0x1F48E, size: 0x8, addend: 0x0, symName: __ZNSt3__122__compressed_pair_elemIPNS_6vectorI4CellNS_9allocatorIS2_EEEELi0ELb0EEC2B7v160006IDnvEEOT_, symObjAddr: 0x194C, symBinAddr: 0x10000408C, symSize: 0x1C }
  - { offsetInCU: 0x18FC2, offset: 0x1F4CE, size: 0x8, addend: 0x0, symName: __ZNSt3__122__compressed_pair_elemINS_9allocatorINS_6vectorI4CellNS1_IS3_EEEEEELi1ELb1EEC2B7v160006ENS_18__default_init_tagE, symObjAddr: 0x1968, symBinAddr: 0x1000040A8, symSize: 0x2C }
  - { offsetInCU: 0x18FF4, offset: 0x1F500, size: 0x8, addend: 0x0, symName: __ZNSt3__19allocatorINS_6vectorI4CellNS0_IS2_EEEEEC2B7v160006Ev, symObjAddr: 0x1994, symBinAddr: 0x1000040D4, symSize: 0x2C }
  - { offsetInCU: 0x1901C, offset: 0x1F528, size: 0x8, addend: 0x0, symName: __ZNSt3__116__non_trivial_ifILb1ENS_9allocatorINS_6vectorI4CellNS1_IS3_EEEEEEEC2B7v160006Ev, symObjAddr: 0x19C0, symBinAddr: 0x100004100, symSize: 0x14 }
  - { offsetInCU: 0x19044, offset: 0x1F550, size: 0x8, addend: 0x0, symName: __ZNSt3__16vectorINS0_I4CellNS_9allocatorIS1_EEEENS2_IS4_EEED2B7v160006Ev, symObjAddr: 0x19D4, symBinAddr: 0x100004114, symSize: 0x44 }
  - { offsetInCU: 0x1906C, offset: 0x1F578, size: 0x8, addend: 0x0, symName: __ZNSt3__16vectorINS0_I4CellNS_9allocatorIS1_EEEENS2_IS4_EEE16__destroy_vectorC1ERS6_, symObjAddr: 0x1A18, symBinAddr: 0x100004158, symSize: 0x34 }
  - { offsetInCU: 0x190A3, offset: 0x1F5AF, size: 0x8, addend: 0x0, symName: __ZNSt3__16vectorINS0_I4CellNS_9allocatorIS1_EEEENS2_IS4_EEE16__destroy_vectorclB7v160006Ev, symObjAddr: 0x1A4C, symBinAddr: 0x10000418C, symSize: 0x9C }
  - { offsetInCU: 0x190C8, offset: 0x1F5D4, size: 0x8, addend: 0x0, symName: __ZNSt3__16vectorINS0_I4CellNS_9allocatorIS1_EEEENS2_IS4_EEE16__destroy_vectorC2ERS6_, symObjAddr: 0x1AE8, symBinAddr: 0x100004228, symSize: 0x20 }
  - { offsetInCU: 0x190FF, offset: 0x1F60B, size: 0x8, addend: 0x0, symName: __ZNKSt3__16vectorINS0_I4CellNS_9allocatorIS1_EEEENS2_IS4_EEE17__annotate_deleteB7v160006Ev, symObjAddr: 0x1B08, symBinAddr: 0x100004248, symSize: 0xD4 }
  - { offsetInCU: 0x19124, offset: 0x1F630, size: 0x8, addend: 0x0, symName: __ZNSt3__16vectorINS0_I4CellNS_9allocatorIS1_EEEENS2_IS4_EEE7__clearB7v160006Ev, symObjAddr: 0x1BEC, symBinAddr: 0x10000432C, symSize: 0x28 }
  - { offsetInCU: 0x19149, offset: 0x1F655, size: 0x8, addend: 0x0, symName: __ZNSt3__116allocator_traitsINS_9allocatorINS_6vectorI4CellNS1_IS3_EEEEEEE10deallocateB7v160006ERS6_PS5_m, symObjAddr: 0x1C14, symBinAddr: 0x100004354, symSize: 0x34 }
  - { offsetInCU: 0x1918A, offset: 0x1F696, size: 0x8, addend: 0x0, symName: __ZNSt3__16vectorINS0_I4CellNS_9allocatorIS1_EEEENS2_IS4_EEE7__allocB7v160006Ev, symObjAddr: 0x1C48, symBinAddr: 0x100004388, symSize: 0x28 }
  - { offsetInCU: 0x191AF, offset: 0x1F6BB, size: 0x8, addend: 0x0, symName: __ZNKSt3__16vectorINS0_I4CellNS_9allocatorIS1_EEEENS2_IS4_EEE8capacityB7v160006Ev, symObjAddr: 0x1C70, symBinAddr: 0x1000043B0, symSize: 0x40 }
  - { offsetInCU: 0x191D4, offset: 0x1F6E0, size: 0x8, addend: 0x0, symName: __ZNKSt3__16vectorINS0_I4CellNS_9allocatorIS1_EEEENS2_IS4_EEE31__annotate_contiguous_containerB7v160006EPKvS8_S8_S8_, symObjAddr: 0x1CB0, symBinAddr: 0x1000043F0, symSize: 0x20 }
  - { offsetInCU: 0x19229, offset: 0x1F735, size: 0x8, addend: 0x0, symName: __ZNKSt3__16vectorINS0_I4CellNS_9allocatorIS1_EEEENS2_IS4_EEE4dataB7v160006Ev, symObjAddr: 0x1CD0, symBinAddr: 0x100004410, symSize: 0x28 }
  - { offsetInCU: 0x1924E, offset: 0x1F75A, size: 0x8, addend: 0x0, symName: __ZNKSt3__16vectorINS0_I4CellNS_9allocatorIS1_EEEENS2_IS4_EEE4sizeB7v160006Ev, symObjAddr: 0x1CF8, symBinAddr: 0x100004438, symSize: 0x28 }
  - { offsetInCU: 0x19273, offset: 0x1F77F, size: 0x8, addend: 0x0, symName: __ZNSt3__16vectorINS0_I4CellNS_9allocatorIS1_EEEENS2_IS4_EEE22__base_destruct_at_endB7v160006EPS4_, symObjAddr: 0x1D34, symBinAddr: 0x100004474, symSize: 0x8C }
  - { offsetInCU: 0x192B7, offset: 0x1F7C3, size: 0x8, addend: 0x0, symName: __ZNSt3__116allocator_traitsINS_9allocatorINS_6vectorI4CellNS1_IS3_EEEEEEE7destroyB7v160006IS5_vvEEvRS6_PT_, symObjAddr: 0x1DC0, symBinAddr: 0x100004500, symSize: 0x28 }
  - { offsetInCU: 0x192F1, offset: 0x1F7FD, size: 0x8, addend: 0x0, symName: __ZNSt3__16vectorI4CellNS_9allocatorIS1_EEED1B7v160006Ev, symObjAddr: 0x1E30, symBinAddr: 0x100004570, symSize: 0x2C }
  - { offsetInCU: 0x19319, offset: 0x1F825, size: 0x8, addend: 0x0, symName: __ZNSt3__16vectorI4CellNS_9allocatorIS1_EEED2B7v160006Ev, symObjAddr: 0x1E5C, symBinAddr: 0x10000459C, symSize: 0x44 }
  - { offsetInCU: 0x19341, offset: 0x1F84D, size: 0x8, addend: 0x0, symName: __ZNSt3__16vectorI4CellNS_9allocatorIS1_EEE16__destroy_vectorC1ERS4_, symObjAddr: 0x1EA0, symBinAddr: 0x1000045E0, symSize: 0x34 }
  - { offsetInCU: 0x19378, offset: 0x1F884, size: 0x8, addend: 0x0, symName: __ZNSt3__16vectorI4CellNS_9allocatorIS1_EEE16__destroy_vectorclB7v160006Ev, symObjAddr: 0x1ED4, symBinAddr: 0x100004614, symSize: 0x9C }
  - { offsetInCU: 0x1939D, offset: 0x1F8A9, size: 0x8, addend: 0x0, symName: __ZNSt3__16vectorI4CellNS_9allocatorIS1_EEE16__destroy_vectorC2ERS4_, symObjAddr: 0x1F70, symBinAddr: 0x1000046B0, symSize: 0x20 }
  - { offsetInCU: 0x193D4, offset: 0x1F8E0, size: 0x8, addend: 0x0, symName: __ZNKSt3__16vectorI4CellNS_9allocatorIS1_EEE17__annotate_deleteB7v160006Ev, symObjAddr: 0x1F90, symBinAddr: 0x1000046D0, symSize: 0xD4 }
  - { offsetInCU: 0x193F9, offset: 0x1F905, size: 0x8, addend: 0x0, symName: __ZNSt3__16vectorI4CellNS_9allocatorIS1_EEE7__clearB7v160006Ev, symObjAddr: 0x2074, symBinAddr: 0x1000047B4, symSize: 0x28 }
  - { offsetInCU: 0x1941E, offset: 0x1F92A, size: 0x8, addend: 0x0, symName: __ZNSt3__116allocator_traitsINS_9allocatorI4CellEEE10deallocateB7v160006ERS3_PS2_m, symObjAddr: 0x209C, symBinAddr: 0x1000047DC, symSize: 0x34 }
  - { offsetInCU: 0x1945F, offset: 0x1F96B, size: 0x8, addend: 0x0, symName: __ZNSt3__16vectorI4CellNS_9allocatorIS1_EEE7__allocB7v160006Ev, symObjAddr: 0x20D0, symBinAddr: 0x100004810, symSize: 0x28 }
  - { offsetInCU: 0x19484, offset: 0x1F990, size: 0x8, addend: 0x0, symName: __ZNKSt3__16vectorI4CellNS_9allocatorIS1_EEE8capacityB7v160006Ev, symObjAddr: 0x20F8, symBinAddr: 0x100004838, symSize: 0x40 }
  - { offsetInCU: 0x194A9, offset: 0x1F9B5, size: 0x8, addend: 0x0, symName: __ZNKSt3__16vectorI4CellNS_9allocatorIS1_EEE31__annotate_contiguous_containerB7v160006EPKvS6_S6_S6_, symObjAddr: 0x2138, symBinAddr: 0x100004878, symSize: 0x20 }
  - { offsetInCU: 0x194FE, offset: 0x1FA0A, size: 0x8, addend: 0x0, symName: __ZNKSt3__16vectorI4CellNS_9allocatorIS1_EEE4dataB7v160006Ev, symObjAddr: 0x2158, symBinAddr: 0x100004898, symSize: 0x28 }
  - { offsetInCU: 0x19523, offset: 0x1FA2F, size: 0x8, addend: 0x0, symName: __ZNKSt3__16vectorI4CellNS_9allocatorIS1_EEE4sizeB7v160006Ev, symObjAddr: 0x2180, symBinAddr: 0x1000048C0, symSize: 0x28 }
  - { offsetInCU: 0x19548, offset: 0x1FA54, size: 0x8, addend: 0x0, symName: __ZNSt3__16vectorI4CellNS_9allocatorIS1_EEE22__base_destruct_at_endB7v160006EPS1_, symObjAddr: 0x21BC, symBinAddr: 0x1000048FC, symSize: 0x8C }
  - { offsetInCU: 0x1958C, offset: 0x1FA98, size: 0x8, addend: 0x0, symName: __ZNSt3__116allocator_traitsINS_9allocatorI4CellEEE7destroyB7v160006IS2_vvEEvRS3_PT_, symObjAddr: 0x2248, symBinAddr: 0x100004988, symSize: 0x28 }
  - { offsetInCU: 0x195C6, offset: 0x1FAD2, size: 0x8, addend: 0x0, symName: __ZN4CellD1Ev, symObjAddr: 0x22B8, symBinAddr: 0x1000049F8, symSize: 0x2C }
  - { offsetInCU: 0x195EE, offset: 0x1FAFA, size: 0x8, addend: 0x0, symName: __ZN4CellD2Ev, symObjAddr: 0x22E4, symBinAddr: 0x100004A24, symSize: 0x30 }
  - { offsetInCU: 0x19616, offset: 0x1FB22, size: 0x8, addend: 0x0, symName: __ZNSt3__13mapINS_12basic_stringIcNS_11char_traitsIcEENS_9allocatorIcEEEEiNS_4lessIS6_EENS4_INS_4pairIKS6_iEEEEED1B7v160006Ev, symObjAddr: 0x2314, symBinAddr: 0x100004A54, symSize: 0x2C }
  - { offsetInCU: 0x1963E, offset: 0x1FB4A, size: 0x8, addend: 0x0, symName: __ZNSt3__13mapINS_12basic_stringIcNS_11char_traitsIcEENS_9allocatorIcEEEEiNS_4lessIS6_EENS4_INS_4pairIKS6_iEEEEED2B7v160006Ev, symObjAddr: 0x2340, symBinAddr: 0x100004A80, symSize: 0x2C }
  - { offsetInCU: 0x19666, offset: 0x1FB72, size: 0x8, addend: 0x0, symName: __ZNSt3__16__treeINS_12__value_typeINS_12basic_stringIcNS_11char_traitsIcEENS_9allocatorIcEEEEiEENS_19__map_value_compareIS7_S8_NS_4lessIS7_EELb1EEENS5_IS8_EEED1Ev, symObjAddr: 0x236C, symBinAddr: 0x100004AAC, symSize: 0x2C }
  - { offsetInCU: 0x19691, offset: 0x1FB9D, size: 0x8, addend: 0x0, symName: __ZNSt3__16__treeINS_12__value_typeINS_12basic_stringIcNS_11char_traitsIcEENS_9allocatorIcEEEEiEENS_19__map_value_compareIS7_S8_NS_4lessIS7_EELb1EEENS5_IS8_EEED2Ev, symObjAddr: 0x2398, symBinAddr: 0x100004AD8, symSize: 0x38 }
  - { offsetInCU: 0x196BC, offset: 0x1FBC8, size: 0x8, addend: 0x0, symName: __ZNSt3__16__treeINS_12__value_typeINS_12basic_stringIcNS_11char_traitsIcEENS_9allocatorIcEEEEiEENS_19__map_value_compareIS7_S8_NS_4lessIS7_EELb1EEENS5_IS8_EEE7destroyEPNS_11__tree_nodeIS8_PvEE, symObjAddr: 0x23D0, symBinAddr: 0x100004B10, symSize: 0xAC }
  - { offsetInCU: 0x19709, offset: 0x1FC15, size: 0x8, addend: 0x0, symName: __ZNKSt3__16__treeINS_12__value_typeINS_12basic_stringIcNS_11char_traitsIcEENS_9allocatorIcEEEEiEENS_19__map_value_compareIS7_S8_NS_4lessIS7_EELb1EEENS5_IS8_EEE6__rootB7v160006Ev, symObjAddr: 0x247C, symBinAddr: 0x100004BBC, symSize: 0x28 }
  - { offsetInCU: 0x1972E, offset: 0x1FC3A, size: 0x8, addend: 0x0, symName: __ZNSt3__16__treeINS_12__value_typeINS_12basic_stringIcNS_11char_traitsIcEENS_9allocatorIcEEEEiEENS_19__map_value_compareIS7_S8_NS_4lessIS7_EELb1EEENS5_IS8_EEE12__node_allocB7v160006Ev, symObjAddr: 0x24A4, symBinAddr: 0x100004BE4, symSize: 0x28 }
  - { offsetInCU: 0x19753, offset: 0x1FC5F, size: 0x8, addend: 0x0, symName: __ZNSt3__116allocator_traitsINS_9allocatorINS_11__tree_nodeINS_12__value_typeINS_12basic_stringIcNS_11char_traitsIcEENS1_IcEEEEiEEPvEEEEE7destroyB7v160006INS_4pairIKS8_iEEvvEEvRSC_PT_, symObjAddr: 0x24CC, symBinAddr: 0x100004C0C, symSize: 0x28 }
  - { offsetInCU: 0x1978D, offset: 0x1FC99, size: 0x8, addend: 0x0, symName: __ZNSt3__122__tree_key_value_typesINS_12__value_typeINS_12basic_stringIcNS_11char_traitsIcEENS_9allocatorIcEEEEiEEE9__get_ptrB7v160006ERS8_, symObjAddr: 0x24F4, symBinAddr: 0x100004C34, symSize: 0x24 }
  - { offsetInCU: 0x197B0, offset: 0x1FCBC, size: 0x8, addend: 0x0, symName: __ZNSt3__116allocator_traitsINS_9allocatorINS_11__tree_nodeINS_12__value_typeINS_12basic_stringIcNS_11char_traitsIcEENS1_IcEEEEiEEPvEEEEE10deallocateB7v160006ERSC_PSB_m, symObjAddr: 0x2518, symBinAddr: 0x100004C58, symSize: 0x34 }
  - { offsetInCU: 0x197F1, offset: 0x1FCFD, size: 0x8, addend: 0x0, symName: __ZNSt3__117__compressed_pairINS_15__tree_end_nodeIPNS_16__tree_node_baseIPvEEEENS_9allocatorINS_11__tree_nodeINS_12__value_typeINS_12basic_stringIcNS_11char_traitsIcEENS7_IcEEEEiEES3_EEEEE6secondB7v160006Ev, symObjAddr: 0x254C, symBinAddr: 0x100004C8C, symSize: 0x24 }
  - { offsetInCU: 0x19816, offset: 0x1FD22, size: 0x8, addend: 0x0, symName: __ZNSt3__122__compressed_pair_elemINS_9allocatorINS_11__tree_nodeINS_12__value_typeINS_12basic_stringIcNS_11char_traitsIcEENS1_IcEEEEiEEPvEEEELi1ELb1EE5__getB7v160006Ev, symObjAddr: 0x2570, symBinAddr: 0x100004CB0, symSize: 0x14 }
  - { offsetInCU: 0x1983B, offset: 0x1FD47, size: 0x8, addend: 0x0, symName: __ZNSt3__14pairIKNS_12basic_stringIcNS_11char_traitsIcEENS_9allocatorIcEEEEiED1Ev, symObjAddr: 0x25CC, symBinAddr: 0x100004D0C, symSize: 0x2C }
  - { offsetInCU: 0x19866, offset: 0x1FD72, size: 0x8, addend: 0x0, symName: __ZNSt3__14pairIKNS_12basic_stringIcNS_11char_traitsIcEENS_9allocatorIcEEEEiED2Ev, symObjAddr: 0x25F8, symBinAddr: 0x100004D38, symSize: 0x2C }
  - { offsetInCU: 0x19891, offset: 0x1FD9D, size: 0x8, addend: 0x0, symName: __ZNSt3__112__value_typeINS_12basic_stringIcNS_11char_traitsIcEENS_9allocatorIcEEEEiE11__get_valueB7v160006Ev, symObjAddr: 0x2624, symBinAddr: 0x100004D64, symSize: 0x24 }
  - { offsetInCU: 0x198B6, offset: 0x1FDC2, size: 0x8, addend: 0x0, symName: __ZNSt3__19allocatorINS_11__tree_nodeINS_12__value_typeINS_12basic_stringIcNS_11char_traitsIcEENS0_IcEEEEiEEPvEEE10deallocateB7v160006EPSA_m, symObjAddr: 0x2680, symBinAddr: 0x100004DC0, symSize: 0x40 }
  - { offsetInCU: 0x198F7, offset: 0x1FE03, size: 0x8, addend: 0x0, symName: __ZNKSt3__16__treeINS_12__value_typeINS_12basic_stringIcNS_11char_traitsIcEENS_9allocatorIcEEEEiEENS_19__map_value_compareIS7_S8_NS_4lessIS7_EELb1EEENS5_IS8_EEE10__end_nodeB7v160006Ev, symObjAddr: 0x27E8, symBinAddr: 0x100004F28, symSize: 0x2C }
  - { offsetInCU: 0x1991C, offset: 0x1FE28, size: 0x8, addend: 0x0, symName: __ZNSt3__114pointer_traitsIPNS_15__tree_end_nodeIPNS_16__tree_node_baseIPvEEEEE10pointer_toB7v160006ERS6_, symObjAddr: 0x2814, symBinAddr: 0x100004F54, symSize: 0x14 }
  - { offsetInCU: 0x1993F, offset: 0x1FE4B, size: 0x8, addend: 0x0, symName: __ZNKSt3__117__compressed_pairINS_15__tree_end_nodeIPNS_16__tree_node_baseIPvEEEENS_9allocatorINS_11__tree_nodeINS_12__value_typeINS_12basic_stringIcNS_11char_traitsIcEENS7_IcEEEEiEES3_EEEEE5firstB7v160006Ev, symObjAddr: 0x2828, symBinAddr: 0x100004F68, symSize: 0x24 }
  - { offsetInCU: 0x19964, offset: 0x1FE70, size: 0x8, addend: 0x0, symName: __ZNKSt3__122__compressed_pair_elemINS_15__tree_end_nodeIPNS_16__tree_node_baseIPvEEEELi0ELb0EE5__getB7v160006Ev, symObjAddr: 0x284C, symBinAddr: 0x100004F8C, symSize: 0x14 }
  - { offsetInCU: 0x19989, offset: 0x1FE95, size: 0x8, addend: 0x0, symName: __ZNSt3__19allocatorI4CellE10deallocateB7v160006EPS1_m, symObjAddr: 0x2860, symBinAddr: 0x100004FA0, symSize: 0x44 }
  - { offsetInCU: 0x199CA, offset: 0x1FED6, size: 0x8, addend: 0x0, symName: __ZNSt3__117__compressed_pairIP4CellNS_9allocatorIS1_EEE6secondB7v160006Ev, symObjAddr: 0x28A4, symBinAddr: 0x100004FE4, symSize: 0x24 }
  - { offsetInCU: 0x199EF, offset: 0x1FEFB, size: 0x8, addend: 0x0, symName: __ZNSt3__122__compressed_pair_elemINS_9allocatorI4CellEELi1ELb1EE5__getB7v160006Ev, symObjAddr: 0x28C8, symBinAddr: 0x100005008, symSize: 0x14 }
  - { offsetInCU: 0x19A14, offset: 0x1FF20, size: 0x8, addend: 0x0, symName: __ZNKSt3__16vectorI4CellNS_9allocatorIS1_EEE9__end_capB7v160006Ev, symObjAddr: 0x28DC, symBinAddr: 0x10000501C, symSize: 0x28 }
  - { offsetInCU: 0x19A39, offset: 0x1FF45, size: 0x8, addend: 0x0, symName: __ZNKSt3__117__compressed_pairIP4CellNS_9allocatorIS1_EEE5firstB7v160006Ev, symObjAddr: 0x2904, symBinAddr: 0x100005044, symSize: 0x24 }
  - { offsetInCU: 0x19A5E, offset: 0x1FF6A, size: 0x8, addend: 0x0, symName: __ZNKSt3__122__compressed_pair_elemIP4CellLi0ELb0EE5__getB7v160006Ev, symObjAddr: 0x2928, symBinAddr: 0x100005068, symSize: 0x14 }
  - { offsetInCU: 0x19A83, offset: 0x1FF8F, size: 0x8, addend: 0x0, symName: __ZNSt3__19allocatorINS_6vectorI4CellNS0_IS2_EEEEE10deallocateB7v160006EPS4_m, symObjAddr: 0x293C, symBinAddr: 0x10000507C, symSize: 0x44 }
  - { offsetInCU: 0x19AC4, offset: 0x1FFD0, size: 0x8, addend: 0x0, symName: __ZNSt3__117__compressed_pairIPNS_6vectorI4CellNS_9allocatorIS2_EEEENS3_IS5_EEE6secondB7v160006Ev, symObjAddr: 0x2980, symBinAddr: 0x1000050C0, symSize: 0x24 }
  - { offsetInCU: 0x19AE9, offset: 0x1FFF5, size: 0x8, addend: 0x0, symName: __ZNSt3__122__compressed_pair_elemINS_9allocatorINS_6vectorI4CellNS1_IS3_EEEEEELi1ELb1EE5__getB7v160006Ev, symObjAddr: 0x29A4, symBinAddr: 0x1000050E4, symSize: 0x14 }
  - { offsetInCU: 0x19B0E, offset: 0x2001A, size: 0x8, addend: 0x0, symName: __ZNKSt3__16vectorINS0_I4CellNS_9allocatorIS1_EEEENS2_IS4_EEE9__end_capB7v160006Ev, symObjAddr: 0x29B8, symBinAddr: 0x1000050F8, symSize: 0x28 }
  - { offsetInCU: 0x19B33, offset: 0x2003F, size: 0x8, addend: 0x0, symName: __ZNKSt3__117__compressed_pairIPNS_6vectorI4CellNS_9allocatorIS2_EEEENS3_IS5_EEE5firstB7v160006Ev, symObjAddr: 0x29E0, symBinAddr: 0x100005120, symSize: 0x24 }
  - { offsetInCU: 0x19B58, offset: 0x20064, size: 0x8, addend: 0x0, symName: __ZNKSt3__122__compressed_pair_elemIPNS_6vectorI4CellNS_9allocatorIS2_EEEELi0ELb0EE5__getB7v160006Ev, symObjAddr: 0x2A04, symBinAddr: 0x100005144, symSize: 0x14 }
  - { offsetInCU: 0x19B7D, offset: 0x20089, size: 0x8, addend: 0x0, symName: __ZNSt3__16vectorINS0_I4CellNS_9allocatorIS1_EEEENS2_IS4_EEE8__appendEm, symObjAddr: 0x2A18, symBinAddr: 0x100005158, symSize: 0x108 }
  - { offsetInCU: 0x19BDA, offset: 0x200E6, size: 0x8, addend: 0x0, symName: __ZNSt3__16vectorINS0_I4CellNS_9allocatorIS1_EEEENS2_IS4_EEE17__destruct_at_endB7v160006EPS4_, symObjAddr: 0x2B20, symBinAddr: 0x100005260, symSize: 0x60 }
  - { offsetInCU: 0x19C1E, offset: 0x2012A, size: 0x8, addend: 0x0, symName: __ZNSt3__16vectorINS0_I4CellNS_9allocatorIS1_EEEENS2_IS4_EEE9__end_capB7v160006Ev, symObjAddr: 0x2B80, symBinAddr: 0x1000052C0, symSize: 0x28 }
  - { offsetInCU: 0x19C43, offset: 0x2014F, size: 0x8, addend: 0x0, symName: __ZNSt3__16vectorINS0_I4CellNS_9allocatorIS1_EEEENS2_IS4_EEE18__construct_at_endEm, symObjAddr: 0x2BA8, symBinAddr: 0x1000052E8, symSize: 0xC8 }
  - { offsetInCU: 0x19CB8, offset: 0x201C4, size: 0x8, addend: 0x0, symName: __ZNKSt3__16vectorINS0_I4CellNS_9allocatorIS1_EEEENS2_IS4_EEE11__recommendB7v160006Em, symObjAddr: 0x2C70, symBinAddr: 0x1000053B0, symSize: 0xB4 }
  - { offsetInCU: 0x19D0E, offset: 0x2021A, size: 0x8, addend: 0x0, symName: __ZNSt3__114__split_bufferINS_6vectorI4CellNS_9allocatorIS2_EEEERNS3_IS5_EEEC1EmmS7_, symObjAddr: 0x2D24, symBinAddr: 0x100005464, symSize: 0x44 }
  - { offsetInCU: 0x19D63, offset: 0x2026F, size: 0x8, addend: 0x0, symName: __ZNSt3__114__split_bufferINS_6vectorI4CellNS_9allocatorIS2_EEEERNS3_IS5_EEE18__construct_at_endEm, symObjAddr: 0x2D68, symBinAddr: 0x1000054A8, symSize: 0xB4 }
  - { offsetInCU: 0x19DA5, offset: 0x202B1, size: 0x8, addend: 0x0, symName: __ZNSt3__114__split_bufferINS_6vectorI4CellNS_9allocatorIS2_EEEERNS3_IS5_EEED1Ev, symObjAddr: 0x2F34, symBinAddr: 0x100005674, symSize: 0x2C }
  - { offsetInCU: 0x19DD0, offset: 0x202DC, size: 0x8, addend: 0x0, symName: __ZNSt3__117__compressed_pairIPNS_6vectorI4CellNS_9allocatorIS2_EEEENS3_IS5_EEE5firstB7v160006Ev, symObjAddr: 0x2F60, symBinAddr: 0x1000056A0, symSize: 0x24 }
  - { offsetInCU: 0x19DF5, offset: 0x20301, size: 0x8, addend: 0x0, symName: __ZNSt3__122__compressed_pair_elemIPNS_6vectorI4CellNS_9allocatorIS2_EEEELi0ELb0EE5__getB7v160006Ev, symObjAddr: 0x2F84, symBinAddr: 0x1000056C4, symSize: 0x14 }
  - { offsetInCU: 0x19E33, offset: 0x2033F, size: 0x8, addend: 0x0, symName: __ZNSt3__16vectorINS0_I4CellNS_9allocatorIS1_EEEENS2_IS4_EEE21_ConstructTransactionC1B7v160006ERS6_m, symObjAddr: 0x2F98, symBinAddr: 0x1000056D8, symSize: 0x3C }
  - { offsetInCU: 0x19E79, offset: 0x20385, size: 0x8, addend: 0x0, symName: __ZNSt3__116allocator_traitsINS_9allocatorINS_6vectorI4CellNS1_IS3_EEEEEEE9constructB7v160006IS5_JEvvEEvRS6_PT_DpOT0_, symObjAddr: 0x2FD4, symBinAddr: 0x100005714, symSize: 0x28 }
  - { offsetInCU: 0x19EB8, offset: 0x203C4, size: 0x8, addend: 0x0, symName: __ZNSt3__16vectorINS0_I4CellNS_9allocatorIS1_EEEENS2_IS4_EEE21_ConstructTransactionD1B7v160006Ev, symObjAddr: 0x2FFC, symBinAddr: 0x10000573C, symSize: 0x2C }
  - { offsetInCU: 0x19EE0, offset: 0x203EC, size: 0x8, addend: 0x0, symName: __ZNSt3__16vectorINS0_I4CellNS_9allocatorIS1_EEEENS2_IS4_EEE21_ConstructTransactionC2B7v160006ERS6_m, symObjAddr: 0x3028, symBinAddr: 0x100005768, symSize: 0x4C }
  - { offsetInCU: 0x19F26, offset: 0x20432, size: 0x8, addend: 0x0, symName: __ZNSt3__16vectorI4CellNS_9allocatorIS1_EEEC1B7v160006Ev, symObjAddr: 0x30A8, symBinAddr: 0x1000057E8, symSize: 0x2C }
  - { offsetInCU: 0x19F4E, offset: 0x2045A, size: 0x8, addend: 0x0, symName: __ZNSt3__16vectorI4CellNS_9allocatorIS1_EEEC2B7v160006Ev, symObjAddr: 0x30D4, symBinAddr: 0x100005814, symSize: 0x58 }
  - { offsetInCU: 0x19F76, offset: 0x20482, size: 0x8, addend: 0x0, symName: __ZNSt3__117__compressed_pairIP4CellNS_9allocatorIS1_EEEC1B7v160006IDnNS_18__default_init_tagEEEOT_OT0_, symObjAddr: 0x312C, symBinAddr: 0x10000586C, symSize: 0x3C }
  - { offsetInCU: 0x19FCC, offset: 0x204D8, size: 0x8, addend: 0x0, symName: __ZNSt3__117__compressed_pairIP4CellNS_9allocatorIS1_EEEC2B7v160006IDnNS_18__default_init_tagEEEOT_OT0_, symObjAddr: 0x3178, symBinAddr: 0x1000058B8, symSize: 0x40 }
  - { offsetInCU: 0x1A022, offset: 0x2052E, size: 0x8, addend: 0x0, symName: __ZNSt3__122__compressed_pair_elemIP4CellLi0ELb0EEC2B7v160006IDnvEEOT_, symObjAddr: 0x31B8, symBinAddr: 0x1000058F8, symSize: 0x1C }
  - { offsetInCU: 0x1A062, offset: 0x2056E, size: 0x8, addend: 0x0, symName: __ZNSt3__122__compressed_pair_elemINS_9allocatorI4CellEELi1ELb1EEC2B7v160006ENS_18__default_init_tagE, symObjAddr: 0x31D4, symBinAddr: 0x100005914, symSize: 0x2C }
  - { offsetInCU: 0x1A094, offset: 0x205A0, size: 0x8, addend: 0x0, symName: __ZNSt3__19allocatorI4CellEC2B7v160006Ev, symObjAddr: 0x3200, symBinAddr: 0x100005940, symSize: 0x2C }
  - { offsetInCU: 0x1A0BC, offset: 0x205C8, size: 0x8, addend: 0x0, symName: __ZNSt3__116__non_trivial_ifILb1ENS_9allocatorI4CellEEEC2B7v160006Ev, symObjAddr: 0x322C, symBinAddr: 0x10000596C, symSize: 0x14 }
  - { offsetInCU: 0x1A0E4, offset: 0x205F0, size: 0x8, addend: 0x0, symName: __ZNSt3__16vectorINS0_I4CellNS_9allocatorIS1_EEEENS2_IS4_EEE21_ConstructTransactionD2B7v160006Ev, symObjAddr: 0x3240, symBinAddr: 0x100005980, symSize: 0x20 }
  - { offsetInCU: 0x1A10C, offset: 0x20618, size: 0x8, addend: 0x0, symName: __ZNKSt3__16vectorINS0_I4CellNS_9allocatorIS1_EEEENS2_IS4_EEE8max_sizeEv, symObjAddr: 0x3260, symBinAddr: 0x1000059A0, symSize: 0x60 }
  - { offsetInCU: 0x1A133, offset: 0x2063F, size: 0x8, addend: 0x0, symName: __ZNKSt3__16vectorINS0_I4CellNS_9allocatorIS1_EEEENS2_IS4_EEE20__throw_length_errorB7v160006Ev, symObjAddr: 0x32C0, symBinAddr: 0x100005A00, symSize: 0x1C }
  - { offsetInCU: 0x1A162, offset: 0x2066E, size: 0x8, addend: 0x0, symName: __ZNSt3__116allocator_traitsINS_9allocatorINS_6vectorI4CellNS1_IS3_EEEEEEE8max_sizeB7v160006IS6_vvEEmRKS6_, symObjAddr: 0x3334, symBinAddr: 0x100005A74, symSize: 0x28 }
  - { offsetInCU: 0x1A18D, offset: 0x20699, size: 0x8, addend: 0x0, symName: __ZNKSt3__16vectorINS0_I4CellNS_9allocatorIS1_EEEENS2_IS4_EEE7__allocB7v160006Ev, symObjAddr: 0x335C, symBinAddr: 0x100005A9C, symSize: 0x28 }
  - { offsetInCU: 0x1A1B2, offset: 0x206BE, size: 0x8, addend: 0x0, symName: __ZNSt3__114numeric_limitsIlE3maxB7v160006Ev, symObjAddr: 0x3384, symBinAddr: 0x100005AC4, symSize: 0x14 }
  - { offsetInCU: 0x1A1D0, offset: 0x206DC, size: 0x8, addend: 0x0, symName: __ZNKSt3__16__lessImmEclB7v160006ERKmS3_, symObjAddr: 0x33EC, symBinAddr: 0x100005B2C, symSize: 0x34 }
  - { offsetInCU: 0x1A211, offset: 0x2071D, size: 0x8, addend: 0x0, symName: __ZNSt3__114numeric_limitsImE3maxB7v160006Ev, symObjAddr: 0x3420, symBinAddr: 0x100005B60, symSize: 0x14 }
  - { offsetInCU: 0x1A225, offset: 0x20731, size: 0x8, addend: 0x0, symName: __ZNSt3__123__libcpp_numeric_limitsImLb1EE3maxB7v160006Ev, symObjAddr: 0x3434, symBinAddr: 0x100005B74, symSize: 0x8 }
  - { offsetInCU: 0x1A239, offset: 0x20745, size: 0x8, addend: 0x0, symName: __ZNKSt3__117__compressed_pairIPNS_6vectorI4CellNS_9allocatorIS2_EEEENS3_IS5_EEE6secondB7v160006Ev, symObjAddr: 0x343C, symBinAddr: 0x100005B7C, symSize: 0x24 }
  - { offsetInCU: 0x1A25E, offset: 0x2076A, size: 0x8, addend: 0x0, symName: __ZNKSt3__122__compressed_pair_elemINS_9allocatorINS_6vectorI4CellNS1_IS3_EEEEEELi1ELb1EE5__getB7v160006Ev, symObjAddr: 0x3460, symBinAddr: 0x100005BA0, symSize: 0x14 }
  - { offsetInCU: 0x1A283, offset: 0x2078F, size: 0x8, addend: 0x0, symName: __ZNSt3__123__libcpp_numeric_limitsIlLb1EE3maxB7v160006Ev, symObjAddr: 0x3474, symBinAddr: 0x100005BB4, symSize: 0x8 }
  - { offsetInCU: 0x1A297, offset: 0x207A3, size: 0x8, addend: 0x0, symName: __ZNSt12length_errorC1B7v160006EPKc, symObjAddr: 0x34E0, symBinAddr: 0x100005C20, symSize: 0x34 }
  - { offsetInCU: 0x1A2CD, offset: 0x207D9, size: 0x8, addend: 0x0, symName: __ZNSt12length_errorC2B7v160006EPKc, symObjAddr: 0x3514, symBinAddr: 0x100005C54, symSize: 0x4C }
  - { offsetInCU: 0x1A303, offset: 0x2080F, size: 0x8, addend: 0x0, symName: __ZNSt3__114__split_bufferINS_6vectorI4CellNS_9allocatorIS2_EEEERNS3_IS5_EEEC2EmmS7_, symObjAddr: 0x35B4, symBinAddr: 0x100005CF4, symSize: 0xE0 }
  - { offsetInCU: 0x1A377, offset: 0x20883, size: 0x8, addend: 0x0, symName: __ZNSt3__117__compressed_pairIPNS_6vectorI4CellNS_9allocatorIS2_EEEERNS3_IS5_EEEC1B7v160006IDnS8_EEOT_OT0_, symObjAddr: 0x3694, symBinAddr: 0x100005DD4, symSize: 0x3C }
  - { offsetInCU: 0x1A3CD, offset: 0x208D9, size: 0x8, addend: 0x0, symName: __ZNSt3__114__split_bufferINS_6vectorI4CellNS_9allocatorIS2_EEEERNS3_IS5_EEE7__allocB7v160006Ev, symObjAddr: 0x3710, symBinAddr: 0x100005E50, symSize: 0x28 }
  - { offsetInCU: 0x1A3F2, offset: 0x208FE, size: 0x8, addend: 0x0, symName: __ZNSt3__114__split_bufferINS_6vectorI4CellNS_9allocatorIS2_EEEERNS3_IS5_EEE9__end_capB7v160006Ev, symObjAddr: 0x3738, symBinAddr: 0x100005E78, symSize: 0x28 }
  - { offsetInCU: 0x1A417, offset: 0x20923, size: 0x8, addend: 0x0, symName: __ZNSt3__117__compressed_pairIPNS_6vectorI4CellNS_9allocatorIS2_EEEERNS3_IS5_EEEC2B7v160006IDnS8_EEOT_OT0_, symObjAddr: 0x3760, symBinAddr: 0x100005EA0, symSize: 0x48 }
  - { offsetInCU: 0x1A46D, offset: 0x20979, size: 0x8, addend: 0x0, symName: __ZNSt3__122__compressed_pair_elemIRNS_9allocatorINS_6vectorI4CellNS1_IS3_EEEEEELi1ELb0EEC2B7v160006IS7_vEEOT_, symObjAddr: 0x37A8, symBinAddr: 0x100005EE8, symSize: 0x20 }
  - { offsetInCU: 0x1A4AD, offset: 0x209B9, size: 0x8, addend: 0x0, symName: __ZNSt3__19allocatorINS_6vectorI4CellNS0_IS2_EEEEE8allocateB7v160006Em, symObjAddr: 0x37C8, symBinAddr: 0x100005F08, symSize: 0x5C }
  - { offsetInCU: 0x1A4E0, offset: 0x209EC, size: 0x8, addend: 0x0, symName: __ZNSt3__117__compressed_pairIPNS_6vectorI4CellNS_9allocatorIS2_EEEERNS3_IS5_EEE6secondB7v160006Ev, symObjAddr: 0x3908, symBinAddr: 0x100006048, symSize: 0x28 }
  - { offsetInCU: 0x1A505, offset: 0x20A11, size: 0x8, addend: 0x0, symName: __ZNSt3__122__compressed_pair_elemIRNS_9allocatorINS_6vectorI4CellNS1_IS3_EEEEEELi1ELb0EE5__getB7v160006Ev, symObjAddr: 0x3930, symBinAddr: 0x100006070, symSize: 0x18 }
  - { offsetInCU: 0x1A52A, offset: 0x20A36, size: 0x8, addend: 0x0, symName: __ZNSt3__117__compressed_pairIPNS_6vectorI4CellNS_9allocatorIS2_EEEERNS3_IS5_EEE5firstB7v160006Ev, symObjAddr: 0x3948, symBinAddr: 0x100006088, symSize: 0x24 }
  - { offsetInCU: 0x1A559, offset: 0x20A65, size: 0x8, addend: 0x0, symName: __ZNSt3__114__split_bufferINS_6vectorI4CellNS_9allocatorIS2_EEEERNS3_IS5_EEE21_ConstructTransactionC1B7v160006EPPS5_m, symObjAddr: 0x396C, symBinAddr: 0x1000060AC, symSize: 0x3C }
  - { offsetInCU: 0x1A59D, offset: 0x20AA9, size: 0x8, addend: 0x0, symName: __ZNSt3__114__split_bufferINS_6vectorI4CellNS_9allocatorIS2_EEEERNS3_IS5_EEE21_ConstructTransactionD1B7v160006Ev, symObjAddr: 0x39A8, symBinAddr: 0x1000060E8, symSize: 0x2C }
  - { offsetInCU: 0x1A5C5, offset: 0x20AD1, size: 0x8, addend: 0x0, symName: __ZNSt3__114__split_bufferINS_6vectorI4CellNS_9allocatorIS2_EEEERNS3_IS5_EEE21_ConstructTransactionC2B7v160006EPPS5_m, symObjAddr: 0x39D4, symBinAddr: 0x100006114, symSize: 0x4C }
  - { offsetInCU: 0x1A609, offset: 0x20B15, size: 0x8, addend: 0x0, symName: __ZNSt3__114__split_bufferINS_6vectorI4CellNS_9allocatorIS2_EEEERNS3_IS5_EEE21_ConstructTransactionD2B7v160006Ev, symObjAddr: 0x3A20, symBinAddr: 0x100006160, symSize: 0x20 }
  - { offsetInCU: 0x1A631, offset: 0x20B3D, size: 0x8, addend: 0x0, symName: __ZNSt3__116reverse_iteratorIPNS_6vectorI4CellNS_9allocatorIS2_EEEEEC1B7v160006ES6_, symObjAddr: 0x3B6C, symBinAddr: 0x1000062AC, symSize: 0x34 }
  - { offsetInCU: 0x1A667, offset: 0x20B73, size: 0x8, addend: 0x0, symName: __ZNKSt3__116reverse_iteratorIPNS_6vectorI4CellNS_9allocatorIS2_EEEEE4baseB7v160006Ev, symObjAddr: 0x3BA0, symBinAddr: 0x1000062E0, symSize: 0x18 }
  - { offsetInCU: 0x1A68C, offset: 0x20B98, size: 0x8, addend: 0x0, symName: __ZNKSt3__16vectorINS0_I4CellNS_9allocatorIS1_EEEENS2_IS4_EEE14__annotate_newB7v160006Em, symObjAddr: 0x3BF4, symBinAddr: 0x100006334, symSize: 0xC8 }
  - { offsetInCU: 0x1A6C0, offset: 0x20BCC, size: 0x8, addend: 0x0, symName: __ZNSt3__129_AllocatorDestroyRangeReverseINS_9allocatorINS_6vectorI4CellNS1_IS3_EEEEEENS_16reverse_iteratorIPS5_EEEC1B7v160006ERS6_RS9_SC_, symObjAddr: 0x3D18, symBinAddr: 0x100006458, symSize: 0x44 }
  - { offsetInCU: 0x1A715, offset: 0x20C21, size: 0x8, addend: 0x0, symName: __ZNSt3__116allocator_traitsINS_9allocatorINS_6vectorI4CellNS1_IS3_EEEEEEE9constructB7v160006IS5_JS5_EvvEEvRS6_PT_DpOT0_, symObjAddr: 0x3DA4, symBinAddr: 0x1000064E4, symSize: 0x30 }
  - { offsetInCU: 0x1A769, offset: 0x20C75, size: 0x8, addend: 0x0, symName: __ZNKSt3__116reverse_iteratorIPNS_6vectorI4CellNS_9allocatorIS2_EEEEEdeB7v160006Ev, symObjAddr: 0x3DF8, symBinAddr: 0x100006538, symSize: 0x28 }
  - { offsetInCU: 0x1A79C, offset: 0x20CA8, size: 0x8, addend: 0x0, symName: __ZNSt3__116reverse_iteratorIPNS_6vectorI4CellNS_9allocatorIS2_EEEEEppB7v160006Ev, symObjAddr: 0x3E20, symBinAddr: 0x100006560, symSize: 0x20 }
  - { offsetInCU: 0x1A7C1, offset: 0x20CCD, size: 0x8, addend: 0x0, symName: __ZNSt3__128__exception_guard_exceptionsINS_29_AllocatorDestroyRangeReverseINS_9allocatorINS_6vectorI4CellNS2_IS4_EEEEEENS_16reverse_iteratorIPS6_EEEEE10__completeB7v160006Ev, symObjAddr: 0x3E40, symBinAddr: 0x100006580, symSize: 0x1C }
  - { offsetInCU: 0x1A7E6, offset: 0x20CF2, size: 0x8, addend: 0x0, symName: __ZNSt3__128__exception_guard_exceptionsINS_29_AllocatorDestroyRangeReverseINS_9allocatorINS_6vectorI4CellNS2_IS4_EEEEEENS_16reverse_iteratorIPS6_EEEEED1B7v160006Ev, symObjAddr: 0x3E5C, symBinAddr: 0x10000659C, symSize: 0x2C }
  - { offsetInCU: 0x1A80E, offset: 0x20D1A, size: 0x8, addend: 0x0, symName: __ZNSt3__128__exception_guard_exceptionsINS_29_AllocatorDestroyRangeReverseINS_9allocatorINS_6vectorI4CellNS2_IS4_EEEEEENS_16reverse_iteratorIPS6_EEEEEC1B7v160006ESB_, symObjAddr: 0x3E88, symBinAddr: 0x1000065C8, symSize: 0x34 }
  - { offsetInCU: 0x1A845, offset: 0x20D51, size: 0x8, addend: 0x0, symName: __ZNSt3__128__exception_guard_exceptionsINS_29_AllocatorDestroyRangeReverseINS_9allocatorINS_6vectorI4CellNS2_IS4_EEEEEENS_16reverse_iteratorIPS6_EEEEEC2B7v160006ESB_, symObjAddr: 0x3EBC, symBinAddr: 0x1000065FC, symSize: 0x30 }
  - { offsetInCU: 0x1A87C, offset: 0x20D88, size: 0x8, addend: 0x0, symName: __ZNSt3__129_AllocatorDestroyRangeReverseINS_9allocatorINS_6vectorI4CellNS1_IS3_EEEEEENS_16reverse_iteratorIPS5_EEEC2B7v160006ERS6_RS9_SC_, symObjAddr: 0x3EEC, symBinAddr: 0x10000662C, symSize: 0x38 }
  - { offsetInCU: 0x1A8D1, offset: 0x20DDD, size: 0x8, addend: 0x0, symName: __ZNSt3__16vectorI4CellNS_9allocatorIS1_EEEC1B7v160006EOS4_, symObjAddr: 0x3F60, symBinAddr: 0x1000066A0, symSize: 0x34 }
  - { offsetInCU: 0x1A90B, offset: 0x20E17, size: 0x8, addend: 0x0, symName: __ZNSt3__16vectorI4CellNS_9allocatorIS1_EEEC2B7v160006EOS4_, symObjAddr: 0x3F94, symBinAddr: 0x1000066D4, symSize: 0xDC }
  - { offsetInCU: 0x1A94A, offset: 0x20E56, size: 0x8, addend: 0x0, symName: __ZNSt3__117__compressed_pairIP4CellNS_9allocatorIS1_EEEC1B7v160006IDnS4_EEOT_OT0_, symObjAddr: 0x4070, symBinAddr: 0x1000067B0, symSize: 0x3C }
  - { offsetInCU: 0x1A9A0, offset: 0x20EAC, size: 0x8, addend: 0x0, symName: __ZNSt3__16vectorI4CellNS_9allocatorIS1_EEE9__end_capB7v160006Ev, symObjAddr: 0x40C0, symBinAddr: 0x100006800, symSize: 0x28 }
  - { offsetInCU: 0x1A9C5, offset: 0x20ED1, size: 0x8, addend: 0x0, symName: __ZNSt3__117__compressed_pairIP4CellNS_9allocatorIS1_EEEC2B7v160006IDnS4_EEOT_OT0_, symObjAddr: 0x40E8, symBinAddr: 0x100006828, symSize: 0x44 }
  - { offsetInCU: 0x1AA1B, offset: 0x20F27, size: 0x8, addend: 0x0, symName: __ZNSt3__122__compressed_pair_elemINS_9allocatorI4CellEELi1ELb1EEC2B7v160006IS3_vEEOT_, symObjAddr: 0x412C, symBinAddr: 0x10000686C, symSize: 0x18 }
  - { offsetInCU: 0x1AA5B, offset: 0x20F67, size: 0x8, addend: 0x0, symName: __ZNSt3__117__compressed_pairIP4CellNS_9allocatorIS1_EEE5firstB7v160006Ev, symObjAddr: 0x4144, symBinAddr: 0x100006884, symSize: 0x24 }
  - { offsetInCU: 0x1AA80, offset: 0x20F8C, size: 0x8, addend: 0x0, symName: __ZNSt3__122__compressed_pair_elemIP4CellLi0ELb0EE5__getB7v160006Ev, symObjAddr: 0x4168, symBinAddr: 0x1000068A8, symSize: 0x14 }
  - { offsetInCU: 0x1AAAA, offset: 0x20FB6, size: 0x8, addend: 0x0, symName: __ZNSt3__119__to_address_helperINS_16reverse_iteratorIPNS_6vectorI4CellNS_9allocatorIS3_EEEEEEvE6__callB7v160006ERKS8_, symObjAddr: 0x417C, symBinAddr: 0x1000068BC, symSize: 0x38 }
  - { offsetInCU: 0x1AACC, offset: 0x20FD8, size: 0x8, addend: 0x0, symName: __ZNKSt3__116reverse_iteratorIPNS_6vectorI4CellNS_9allocatorIS2_EEEEEptB7v160006Ev, symObjAddr: 0x41B4, symBinAddr: 0x1000068F4, symSize: 0x2C }
  - { offsetInCU: 0x1AAF1, offset: 0x20FFD, size: 0x8, addend: 0x0, symName: __ZNSt3__128__exception_guard_exceptionsINS_29_AllocatorDestroyRangeReverseINS_9allocatorINS_6vectorI4CellNS2_IS4_EEEEEENS_16reverse_iteratorIPS6_EEEEED2B7v160006Ev, symObjAddr: 0x42C4, symBinAddr: 0x100006A04, symSize: 0x50 }
  - { offsetInCU: 0x1AB19, offset: 0x21025, size: 0x8, addend: 0x0, symName: __ZNKSt3__129_AllocatorDestroyRangeReverseINS_9allocatorINS_6vectorI4CellNS1_IS3_EEEEEENS_16reverse_iteratorIPS5_EEEclB7v160006Ev, symObjAddr: 0x4314, symBinAddr: 0x100006A54, symSize: 0xB4 }
  - { offsetInCU: 0x1AB3F, offset: 0x2104B, size: 0x8, addend: 0x0, symName: __ZNSt3__116reverse_iteratorINS0_IPNS_6vectorI4CellNS_9allocatorIS2_EEEEEEEC1B7v160006ES7_, symObjAddr: 0x4438, symBinAddr: 0x100006B78, symSize: 0x3C }
  - { offsetInCU: 0x1AB75, offset: 0x21081, size: 0x8, addend: 0x0, symName: __ZNSt3__116reverse_iteratorINS0_IPNS_6vectorI4CellNS_9allocatorIS2_EEEEEEEppB7v160006Ev, symObjAddr: 0x44F8, symBinAddr: 0x100006C38, symSize: 0x30 }
  - { offsetInCU: 0x1AB9A, offset: 0x210A6, size: 0x8, addend: 0x0, symName: __ZNKSt3__116reverse_iteratorINS0_IPNS_6vectorI4CellNS_9allocatorIS2_EEEEEEE4baseB7v160006Ev, symObjAddr: 0x4528, symBinAddr: 0x100006C68, symSize: 0x24 }
  - { offsetInCU: 0x1ABC4, offset: 0x210D0, size: 0x8, addend: 0x0, symName: __ZNSt3__119__to_address_helperINS_16reverse_iteratorINS1_IPNS_6vectorI4CellNS_9allocatorIS3_EEEEEEEEvE6__callB7v160006ERKS9_, symObjAddr: 0x454C, symBinAddr: 0x100006C8C, symSize: 0x38 }
  - { offsetInCU: 0x1ABE6, offset: 0x210F2, size: 0x8, addend: 0x0, symName: __ZNKSt3__116reverse_iteratorINS0_IPNS_6vectorI4CellNS_9allocatorIS2_EEEEEEEptB7v160006Ev, symObjAddr: 0x4584, symBinAddr: 0x100006CC4, symSize: 0x4C }
  - { offsetInCU: 0x1AC0B, offset: 0x21117, size: 0x8, addend: 0x0, symName: __ZNSt3__116reverse_iteratorIPNS_6vectorI4CellNS_9allocatorIS2_EEEEEpLB7v160006El, symObjAddr: 0x46AC, symBinAddr: 0x100006DEC, symSize: 0x30 }
  - { offsetInCU: 0x1AC3E, offset: 0x2114A, size: 0x8, addend: 0x0, symName: __ZNSt3__116reverse_iteratorIPNS_6vectorI4CellNS_9allocatorIS2_EEEEEmmB7v160006Ev, symObjAddr: 0x46DC, symBinAddr: 0x100006E1C, symSize: 0x20 }
  - { offsetInCU: 0x1AC63, offset: 0x2116F, size: 0x8, addend: 0x0, symName: __ZNSt3__116reverse_iteratorINS0_IPNS_6vectorI4CellNS_9allocatorIS2_EEEEEEEC2B7v160006ES7_, symObjAddr: 0x46FC, symBinAddr: 0x100006E3C, symSize: 0x2C }
  - { offsetInCU: 0x1AC99, offset: 0x211A5, size: 0x8, addend: 0x0, symName: __ZNSt3__116reverse_iteratorIPNS_6vectorI4CellNS_9allocatorIS2_EEEEEC2B7v160006ES6_, symObjAddr: 0x4728, symBinAddr: 0x100006E68, symSize: 0x28 }
  - { offsetInCU: 0x1ACCF, offset: 0x211DB, size: 0x8, addend: 0x0, symName: __ZNSt3__114__split_bufferINS_6vectorI4CellNS_9allocatorIS2_EEEERNS3_IS5_EEED2Ev, symObjAddr: 0x4750, symBinAddr: 0x100006E90, symSize: 0x8C }
  - { offsetInCU: 0x1ACFA, offset: 0x21206, size: 0x8, addend: 0x0, symName: __ZNSt3__114__split_bufferINS_6vectorI4CellNS_9allocatorIS2_EEEERNS3_IS5_EEE5clearB7v160006Ev, symObjAddr: 0x47DC, symBinAddr: 0x100006F1C, symSize: 0x28 }
  - { offsetInCU: 0x1AD1F, offset: 0x2122B, size: 0x8, addend: 0x0, symName: __ZNKSt3__114__split_bufferINS_6vectorI4CellNS_9allocatorIS2_EEEERNS3_IS5_EEE8capacityB7v160006Ev, symObjAddr: 0x4804, symBinAddr: 0x100006F44, symSize: 0x40 }
  - { offsetInCU: 0x1AD44, offset: 0x21250, size: 0x8, addend: 0x0, symName: __ZNSt3__114__split_bufferINS_6vectorI4CellNS_9allocatorIS2_EEEERNS3_IS5_EEE17__destruct_at_endB7v160006EPS5_, symObjAddr: 0x4844, symBinAddr: 0x100006F84, symSize: 0x2C }
  - { offsetInCU: 0x1AD77, offset: 0x21283, size: 0x8, addend: 0x0, symName: __ZNSt3__114__split_bufferINS_6vectorI4CellNS_9allocatorIS2_EEEERNS3_IS5_EEE17__destruct_at_endB7v160006EPS5_NS_17integral_constantIbLb0EEE, symObjAddr: 0x4870, symBinAddr: 0x100006FB0, symSize: 0x80 }
  - { offsetInCU: 0x1ADB6, offset: 0x212C2, size: 0x8, addend: 0x0, symName: __ZNKSt3__114__split_bufferINS_6vectorI4CellNS_9allocatorIS2_EEEERNS3_IS5_EEE9__end_capB7v160006Ev, symObjAddr: 0x48F0, symBinAddr: 0x100007030, symSize: 0x28 }
  - { offsetInCU: 0x1ADDB, offset: 0x212E7, size: 0x8, addend: 0x0, symName: __ZNKSt3__117__compressed_pairIPNS_6vectorI4CellNS_9allocatorIS2_EEEERNS3_IS5_EEE5firstB7v160006Ev, symObjAddr: 0x4918, symBinAddr: 0x100007058, symSize: 0x24 }
  - { offsetInCU: 0x1AE00, offset: 0x2130C, size: 0x8, addend: 0x0, symName: __ZNSt3__16vectorINS0_I4CellNS_9allocatorIS1_EEEENS2_IS4_EEE27__invalidate_iterators_pastB7v160006EPS4_, symObjAddr: 0x493C, symBinAddr: 0x10000707C, symSize: 0x14 }
  - { offsetInCU: 0x1AE36, offset: 0x21342, size: 0x8, addend: 0x0, symName: __ZNKSt3__16vectorINS0_I4CellNS_9allocatorIS1_EEEENS2_IS4_EEE17__annotate_shrinkB7v160006Em, symObjAddr: 0x4950, symBinAddr: 0x100007090, symSize: 0xD0 }
  - { offsetInCU: 0x1AE6A, offset: 0x21376, size: 0x8, addend: 0x0, symName: __ZNSt3__16vectorI4CellNS_9allocatorIS1_EEE8__appendEm, symObjAddr: 0x4A20, symBinAddr: 0x100007160, symSize: 0x108 }
  - { offsetInCU: 0x1AEC7, offset: 0x213D3, size: 0x8, addend: 0x0, symName: __ZNSt3__16vectorI4CellNS_9allocatorIS1_EEE17__destruct_at_endB7v160006EPS1_, symObjAddr: 0x4B28, symBinAddr: 0x100007268, symSize: 0x60 }
  - { offsetInCU: 0x1AF0B, offset: 0x21417, size: 0x8, addend: 0x0, symName: __ZNSt3__16vectorI4CellNS_9allocatorIS1_EEE18__construct_at_endEm, symObjAddr: 0x4B88, symBinAddr: 0x1000072C8, symSize: 0xC8 }
  - { offsetInCU: 0x1AF80, offset: 0x2148C, size: 0x8, addend: 0x0, symName: __ZNKSt3__16vectorI4CellNS_9allocatorIS1_EEE11__recommendB7v160006Em, symObjAddr: 0x4C50, symBinAddr: 0x100007390, symSize: 0xB4 }
  - { offsetInCU: 0x1AFD6, offset: 0x214E2, size: 0x8, addend: 0x0, symName: __ZNSt3__114__split_bufferI4CellRNS_9allocatorIS1_EEEC1EmmS4_, symObjAddr: 0x4D04, symBinAddr: 0x100007444, symSize: 0x44 }
  - { offsetInCU: 0x1B02B, offset: 0x21537, size: 0x8, addend: 0x0, symName: __ZNSt3__114__split_bufferI4CellRNS_9allocatorIS1_EEE18__construct_at_endEm, symObjAddr: 0x4D48, symBinAddr: 0x100007488, symSize: 0xB4 }
  - { offsetInCU: 0x1B06D, offset: 0x21579, size: 0x8, addend: 0x0, symName: __ZNSt3__114__split_bufferI4CellRNS_9allocatorIS1_EEED1Ev, symObjAddr: 0x4F14, symBinAddr: 0x100007654, symSize: 0x2C }
  - { offsetInCU: 0x1B0B1, offset: 0x215BD, size: 0x8, addend: 0x0, symName: __ZNSt3__16vectorI4CellNS_9allocatorIS1_EEE21_ConstructTransactionC1B7v160006ERS4_m, symObjAddr: 0x4F40, symBinAddr: 0x100007680, symSize: 0x3C }
  - { offsetInCU: 0x1B0F7, offset: 0x21603, size: 0x8, addend: 0x0, symName: __ZNSt3__116allocator_traitsINS_9allocatorI4CellEEE9constructB7v160006IS2_JEvvEEvRS3_PT_DpOT0_, symObjAddr: 0x4F7C, symBinAddr: 0x1000076BC, symSize: 0x28 }
  - { offsetInCU: 0x1B136, offset: 0x21642, size: 0x8, addend: 0x0, symName: __ZNSt3__16vectorI4CellNS_9allocatorIS1_EEE21_ConstructTransactionD1B7v160006Ev, symObjAddr: 0x4FA4, symBinAddr: 0x1000076E4, symSize: 0x2C }
  - { offsetInCU: 0x1B15E, offset: 0x2166A, size: 0x8, addend: 0x0, symName: __ZNSt3__16vectorI4CellNS_9allocatorIS1_EEE21_ConstructTransactionC2B7v160006ERS4_m, symObjAddr: 0x4FD0, symBinAddr: 0x100007710, symSize: 0x4C }
  - { offsetInCU: 0x1B1A4, offset: 0x216B0, size: 0x8, addend: 0x0, symName: __ZN4CellC1Ev, symObjAddr: 0x5050, symBinAddr: 0x100007790, symSize: 0x2C }
  - { offsetInCU: 0x1B1CC, offset: 0x216D8, size: 0x8, addend: 0x0, symName: __ZN4CellC2Ev, symObjAddr: 0x507C, symBinAddr: 0x1000077BC, symSize: 0x30 }
  - { offsetInCU: 0x1B1F4, offset: 0x21700, size: 0x8, addend: 0x0, symName: __ZNSt3__13mapINS_12basic_stringIcNS_11char_traitsIcEENS_9allocatorIcEEEEiNS_4lessIS6_EENS4_INS_4pairIKS6_iEEEEEC1B7v160006Ev, symObjAddr: 0x50AC, symBinAddr: 0x1000077EC, symSize: 0x2C }
  - { offsetInCU: 0x1B21C, offset: 0x21728, size: 0x8, addend: 0x0, symName: __ZNSt3__13mapINS_12basic_stringIcNS_11char_traitsIcEENS_9allocatorIcEEEEiNS_4lessIS6_EENS4_INS_4pairIKS6_iEEEEEC2B7v160006Ev, symObjAddr: 0x50D8, symBinAddr: 0x100007818, symSize: 0x40 }
  - { offsetInCU: 0x1B244, offset: 0x21750, size: 0x8, addend: 0x0, symName: __ZNSt3__119__map_value_compareINS_12basic_stringIcNS_11char_traitsIcEENS_9allocatorIcEEEENS_12__value_typeIS6_iEENS_4lessIS6_EELb1EEC1B7v160006ESA_, symObjAddr: 0x5118, symBinAddr: 0x100007858, symSize: 0x2C }
  - { offsetInCU: 0x1B27B, offset: 0x21787, size: 0x8, addend: 0x0, symName: __ZNSt3__16__treeINS_12__value_typeINS_12basic_stringIcNS_11char_traitsIcEENS_9allocatorIcEEEEiEENS_19__map_value_compareIS7_S8_NS_4lessIS7_EELb1EEENS5_IS8_EEEC1ERKSC_, symObjAddr: 0x5144, symBinAddr: 0x100007884, symSize: 0x34 }
  - { offsetInCU: 0x1B2B5, offset: 0x217C1, size: 0x8, addend: 0x0, symName: __ZNSt3__119__map_value_compareINS_12basic_stringIcNS_11char_traitsIcEENS_9allocatorIcEEEENS_12__value_typeIS6_iEENS_4lessIS6_EELb1EEC2B7v160006ESA_, symObjAddr: 0x5178, symBinAddr: 0x1000078B8, symSize: 0x14 }
  - { offsetInCU: 0x1B2EC, offset: 0x217F8, size: 0x8, addend: 0x0, symName: __ZNSt3__16__treeINS_12__value_typeINS_12basic_stringIcNS_11char_traitsIcEENS_9allocatorIcEEEEiEENS_19__map_value_compareIS7_S8_NS_4lessIS7_EELb1EEENS5_IS8_EEEC2ERKSC_, symObjAddr: 0x518C, symBinAddr: 0x1000078CC, symSize: 0x7C }
  - { offsetInCU: 0x1B326, offset: 0x21832, size: 0x8, addend: 0x0, symName: __ZNSt3__117__compressed_pairINS_15__tree_end_nodeIPNS_16__tree_node_baseIPvEEEENS_9allocatorINS_11__tree_nodeINS_12__value_typeINS_12basic_stringIcNS_11char_traitsIcEENS7_IcEEEEiEES3_EEEEEC1B7v160006ILb1EvEEv, symObjAddr: 0x5208, symBinAddr: 0x100007948, symSize: 0x2C }
  - { offsetInCU: 0x1B35E, offset: 0x2186A, size: 0x8, addend: 0x0, symName: __ZNSt3__117__compressed_pairImNS_19__map_value_compareINS_12basic_stringIcNS_11char_traitsIcEENS_9allocatorIcEEEENS_12__value_typeIS7_iEENS_4lessIS7_EELb1EEEEC1B7v160006IiRKSC_EEOT_OT0_, symObjAddr: 0x5234, symBinAddr: 0x100007974, symSize: 0x3C }
  - { offsetInCU: 0x1B3B4, offset: 0x218C0, size: 0x8, addend: 0x0, symName: __ZNSt3__16__treeINS_12__value_typeINS_12basic_stringIcNS_11char_traitsIcEENS_9allocatorIcEEEEiEENS_19__map_value_compareIS7_S8_NS_4lessIS7_EELb1EEENS5_IS8_EEE10__end_nodeB7v160006Ev, symObjAddr: 0x5270, symBinAddr: 0x1000079B0, symSize: 0x2C }
  - { offsetInCU: 0x1B3D9, offset: 0x218E5, size: 0x8, addend: 0x0, symName: __ZNSt3__16__treeINS_12__value_typeINS_12basic_stringIcNS_11char_traitsIcEENS_9allocatorIcEEEEiEENS_19__map_value_compareIS7_S8_NS_4lessIS7_EELb1EEENS5_IS8_EEE12__begin_nodeB7v160006Ev, symObjAddr: 0x529C, symBinAddr: 0x1000079DC, symSize: 0x14 }
  - { offsetInCU: 0x1B3FE, offset: 0x2190A, size: 0x8, addend: 0x0, symName: __ZNSt3__117__compressed_pairINS_15__tree_end_nodeIPNS_16__tree_node_baseIPvEEEENS_9allocatorINS_11__tree_nodeINS_12__value_typeINS_12basic_stringIcNS_11char_traitsIcEENS7_IcEEEEiEES3_EEEEEC2B7v160006ILb1EvEEv, symObjAddr: 0x52B0, symBinAddr: 0x1000079F0, symSize: 0x34 }
  - { offsetInCU: 0x1B431, offset: 0x2193D, size: 0x8, addend: 0x0, symName: __ZNSt3__122__compressed_pair_elemINS_15__tree_end_nodeIPNS_16__tree_node_baseIPvEEEELi0ELb0EEC2B7v160006ENS_16__value_init_tagE, symObjAddr: 0x52E4, symBinAddr: 0x100007A24, symSize: 0x2C }
  - { offsetInCU: 0x1B463, offset: 0x2196F, size: 0x8, addend: 0x0, symName: __ZNSt3__122__compressed_pair_elemINS_9allocatorINS_11__tree_nodeINS_12__value_typeINS_12basic_stringIcNS_11char_traitsIcEENS1_IcEEEEiEEPvEEEELi1ELb1EEC2B7v160006ENS_16__value_init_tagE, symObjAddr: 0x5310, symBinAddr: 0x100007A50, symSize: 0x2C }
  - { offsetInCU: 0x1B495, offset: 0x219A1, size: 0x8, addend: 0x0, symName: __ZNSt3__115__tree_end_nodeIPNS_16__tree_node_baseIPvEEEC1B7v160006Ev, symObjAddr: 0x533C, symBinAddr: 0x100007A7C, symSize: 0x2C }
  - { offsetInCU: 0x1B4BD, offset: 0x219C9, size: 0x8, addend: 0x0, symName: __ZNSt3__115__tree_end_nodeIPNS_16__tree_node_baseIPvEEEC2B7v160006Ev, symObjAddr: 0x5368, symBinAddr: 0x100007AA8, symSize: 0x18 }
  - { offsetInCU: 0x1B4E5, offset: 0x219F1, size: 0x8, addend: 0x0, symName: __ZNSt3__19allocatorINS_11__tree_nodeINS_12__value_typeINS_12basic_stringIcNS_11char_traitsIcEENS0_IcEEEEiEEPvEEEC2B7v160006Ev, symObjAddr: 0x5380, symBinAddr: 0x100007AC0, symSize: 0x2C }
  - { offsetInCU: 0x1B50D, offset: 0x21A19, size: 0x8, addend: 0x0, symName: __ZNSt3__116__non_trivial_ifILb1ENS_9allocatorINS_11__tree_nodeINS_12__value_typeINS_12basic_stringIcNS_11char_traitsIcEENS1_IcEEEEiEEPvEEEEEC2B7v160006Ev, symObjAddr: 0x53AC, symBinAddr: 0x100007AEC, symSize: 0x14 }
  - { offsetInCU: 0x1B535, offset: 0x21A41, size: 0x8, addend: 0x0, symName: __ZNSt3__117__compressed_pairImNS_19__map_value_compareINS_12basic_stringIcNS_11char_traitsIcEENS_9allocatorIcEEEENS_12__value_typeIS7_iEENS_4lessIS7_EELb1EEEEC2B7v160006IiRKSC_EEOT_OT0_, symObjAddr: 0x53C0, symBinAddr: 0x100007B00, symSize: 0x44 }
  - { offsetInCU: 0x1B58B, offset: 0x21A97, size: 0x8, addend: 0x0, symName: __ZNSt3__122__compressed_pair_elemImLi0ELb0EEC2B7v160006IivEEOT_, symObjAddr: 0x5404, symBinAddr: 0x100007B44, symSize: 0x24 }
  - { offsetInCU: 0x1B5CB, offset: 0x21AD7, size: 0x8, addend: 0x0, symName: __ZNSt3__122__compressed_pair_elemINS_19__map_value_compareINS_12basic_stringIcNS_11char_traitsIcEENS_9allocatorIcEEEENS_12__value_typeIS7_iEENS_4lessIS7_EELb1EEELi1ELb1EEC2B7v160006IRKSC_vEEOT_, symObjAddr: 0x5428, symBinAddr: 0x100007B68, symSize: 0x18 }
  - { offsetInCU: 0x1B60B, offset: 0x21B17, size: 0x8, addend: 0x0, symName: __ZNSt3__117__compressed_pairINS_15__tree_end_nodeIPNS_16__tree_node_baseIPvEEEENS_9allocatorINS_11__tree_nodeINS_12__value_typeINS_12basic_stringIcNS_11char_traitsIcEENS7_IcEEEEiEES3_EEEEE5firstB7v160006Ev, symObjAddr: 0x5440, symBinAddr: 0x100007B80, symSize: 0x24 }
  - { offsetInCU: 0x1B630, offset: 0x21B3C, size: 0x8, addend: 0x0, symName: __ZNSt3__122__compressed_pair_elemINS_15__tree_end_nodeIPNS_16__tree_node_baseIPvEEEELi0ELb0EE5__getB7v160006Ev, symObjAddr: 0x5464, symBinAddr: 0x100007BA4, symSize: 0x14 }
  - { offsetInCU: 0x1B655, offset: 0x21B61, size: 0x8, addend: 0x0, symName: __ZNSt3__16vectorI4CellNS_9allocatorIS1_EEE21_ConstructTransactionD2B7v160006Ev, symObjAddr: 0x5478, symBinAddr: 0x100007BB8, symSize: 0x20 }
  - { offsetInCU: 0x1B67D, offset: 0x21B89, size: 0x8, addend: 0x0, symName: __ZNKSt3__16vectorI4CellNS_9allocatorIS1_EEE8max_sizeEv, symObjAddr: 0x5498, symBinAddr: 0x100007BD8, symSize: 0x60 }
  - { offsetInCU: 0x1B6A4, offset: 0x21BB0, size: 0x8, addend: 0x0, symName: __ZNKSt3__16vectorI4CellNS_9allocatorIS1_EEE20__throw_length_errorB7v160006Ev, symObjAddr: 0x54F8, symBinAddr: 0x100007C38, symSize: 0x1C }
  - { offsetInCU: 0x1B6D3, offset: 0x21BDF, size: 0x8, addend: 0x0, symName: __ZNSt3__116allocator_traitsINS_9allocatorI4CellEEE8max_sizeB7v160006IS3_vvEEmRKS3_, symObjAddr: 0x5514, symBinAddr: 0x100007C54, symSize: 0x28 }
  - { offsetInCU: 0x1B6FE, offset: 0x21C0A, size: 0x8, addend: 0x0, symName: __ZNKSt3__16vectorI4CellNS_9allocatorIS1_EEE7__allocB7v160006Ev, symObjAddr: 0x553C, symBinAddr: 0x100007C7C, symSize: 0x28 }
  - { offsetInCU: 0x1B723, offset: 0x21C2F, size: 0x8, addend: 0x0, symName: __ZNKSt3__117__compressed_pairIP4CellNS_9allocatorIS1_EEE6secondB7v160006Ev, symObjAddr: 0x5564, symBinAddr: 0x100007CA4, symSize: 0x24 }
  - { offsetInCU: 0x1B748, offset: 0x21C54, size: 0x8, addend: 0x0, symName: __ZNKSt3__122__compressed_pair_elemINS_9allocatorI4CellEELi1ELb1EE5__getB7v160006Ev, symObjAddr: 0x5588, symBinAddr: 0x100007CC8, symSize: 0x14 }
  - { offsetInCU: 0x1B76D, offset: 0x21C79, size: 0x8, addend: 0x0, symName: __ZNSt3__114__split_bufferI4CellRNS_9allocatorIS1_EEEC2EmmS4_, symObjAddr: 0x559C, symBinAddr: 0x100007CDC, symSize: 0xE0 }
  - { offsetInCU: 0x1B7E1, offset: 0x21CED, size: 0x8, addend: 0x0, symName: __ZNSt3__117__compressed_pairIP4CellRNS_9allocatorIS1_EEEC1B7v160006IDnS5_EEOT_OT0_, symObjAddr: 0x567C, symBinAddr: 0x100007DBC, symSize: 0x3C }
  - { offsetInCU: 0x1B837, offset: 0x21D43, size: 0x8, addend: 0x0, symName: __ZNSt3__114__split_bufferI4CellRNS_9allocatorIS1_EEE7__allocB7v160006Ev, symObjAddr: 0x56F8, symBinAddr: 0x100007E38, symSize: 0x28 }
  - { offsetInCU: 0x1B85C, offset: 0x21D68, size: 0x8, addend: 0x0, symName: __ZNSt3__114__split_bufferI4CellRNS_9allocatorIS1_EEE9__end_capB7v160006Ev, symObjAddr: 0x5720, symBinAddr: 0x100007E60, symSize: 0x28 }
  - { offsetInCU: 0x1B881, offset: 0x21D8D, size: 0x8, addend: 0x0, symName: __ZNSt3__117__compressed_pairIP4CellRNS_9allocatorIS1_EEEC2B7v160006IDnS5_EEOT_OT0_, symObjAddr: 0x5748, symBinAddr: 0x100007E88, symSize: 0x48 }
  - { offsetInCU: 0x1B8D7, offset: 0x21DE3, size: 0x8, addend: 0x0, symName: __ZNSt3__122__compressed_pair_elemIRNS_9allocatorI4CellEELi1ELb0EEC2B7v160006IS4_vEEOT_, symObjAddr: 0x5790, symBinAddr: 0x100007ED0, symSize: 0x20 }
  - { offsetInCU: 0x1B917, offset: 0x21E23, size: 0x8, addend: 0x0, symName: __ZNSt3__19allocatorI4CellE8allocateB7v160006Em, symObjAddr: 0x57B0, symBinAddr: 0x100007EF0, symSize: 0x5C }
  - { offsetInCU: 0x1B94A, offset: 0x21E56, size: 0x8, addend: 0x0, symName: __ZNSt3__117__compressed_pairIP4CellRNS_9allocatorIS1_EEE6secondB7v160006Ev, symObjAddr: 0x580C, symBinAddr: 0x100007F4C, symSize: 0x28 }
  - { offsetInCU: 0x1B96F, offset: 0x21E7B, size: 0x8, addend: 0x0, symName: __ZNSt3__122__compressed_pair_elemIRNS_9allocatorI4CellEELi1ELb0EE5__getB7v160006Ev, symObjAddr: 0x5834, symBinAddr: 0x100007F74, symSize: 0x18 }
  - { offsetInCU: 0x1B994, offset: 0x21EA0, size: 0x8, addend: 0x0, symName: __ZNSt3__117__compressed_pairIP4CellRNS_9allocatorIS1_EEE5firstB7v160006Ev, symObjAddr: 0x584C, symBinAddr: 0x100007F8C, symSize: 0x24 }
  - { offsetInCU: 0x1B9C3, offset: 0x21ECF, size: 0x8, addend: 0x0, symName: __ZNSt3__114__split_bufferI4CellRNS_9allocatorIS1_EEE21_ConstructTransactionC1B7v160006EPPS1_m, symObjAddr: 0x5870, symBinAddr: 0x100007FB0, symSize: 0x3C }
  - { offsetInCU: 0x1BA07, offset: 0x21F13, size: 0x8, addend: 0x0, symName: __ZNSt3__114__split_bufferI4CellRNS_9allocatorIS1_EEE21_ConstructTransactionD1B7v160006Ev, symObjAddr: 0x58AC, symBinAddr: 0x100007FEC, symSize: 0x2C }
  - { offsetInCU: 0x1BA2F, offset: 0x21F3B, size: 0x8, addend: 0x0, symName: __ZNSt3__114__split_bufferI4CellRNS_9allocatorIS1_EEE21_ConstructTransactionC2B7v160006EPPS1_m, symObjAddr: 0x58D8, symBinAddr: 0x100008018, symSize: 0x4C }
  - { offsetInCU: 0x1BA73, offset: 0x21F7F, size: 0x8, addend: 0x0, symName: __ZNSt3__114__split_bufferI4CellRNS_9allocatorIS1_EEE21_ConstructTransactionD2B7v160006Ev, symObjAddr: 0x5924, symBinAddr: 0x100008064, symSize: 0x20 }
  - { offsetInCU: 0x1BA9B, offset: 0x21FA7, size: 0x8, addend: 0x0, symName: __ZNSt3__116reverse_iteratorIP4CellEC1B7v160006ES2_, symObjAddr: 0x5A70, symBinAddr: 0x1000081B0, symSize: 0x34 }
  - { offsetInCU: 0x1BAD1, offset: 0x21FDD, size: 0x8, addend: 0x0, symName: __ZNKSt3__116reverse_iteratorIP4CellE4baseB7v160006Ev, symObjAddr: 0x5AA4, symBinAddr: 0x1000081E4, symSize: 0x18 }
  - { offsetInCU: 0x1BAF6, offset: 0x22002, size: 0x8, addend: 0x0, symName: __ZNKSt3__16vectorI4CellNS_9allocatorIS1_EEE14__annotate_newB7v160006Em, symObjAddr: 0x5AF8, symBinAddr: 0x100008238, symSize: 0xC8 }
  - { offsetInCU: 0x1BB2A, offset: 0x22036, size: 0x8, addend: 0x0, symName: __ZNSt3__129_AllocatorDestroyRangeReverseINS_9allocatorI4CellEENS_16reverse_iteratorIPS2_EEEC1B7v160006ERS3_RS6_S9_, symObjAddr: 0x5C1C, symBinAddr: 0x10000835C, symSize: 0x44 }
  - { offsetInCU: 0x1BB84, offset: 0x22090, size: 0x8, addend: 0x0, symName: __ZNSt3__116allocator_traitsINS_9allocatorI4CellEEE9constructB7v160006IS2_JRKS2_EvvEEvRS3_PT_DpOT0_, symObjAddr: 0x5CA8, symBinAddr: 0x1000083E8, symSize: 0x30 }
  - { offsetInCU: 0x1BBD8, offset: 0x220E4, size: 0x8, addend: 0x0, symName: __ZNKSt3__116reverse_iteratorIP4CellEdeB7v160006Ev, symObjAddr: 0x5CFC, symBinAddr: 0x10000843C, symSize: 0x28 }
  - { offsetInCU: 0x1BC0B, offset: 0x22117, size: 0x8, addend: 0x0, symName: __ZNSt3__116reverse_iteratorIP4CellEppB7v160006Ev, symObjAddr: 0x5D24, symBinAddr: 0x100008464, symSize: 0x20 }
  - { offsetInCU: 0x1BC30, offset: 0x2213C, size: 0x8, addend: 0x0, symName: __ZNSt3__128__exception_guard_exceptionsINS_29_AllocatorDestroyRangeReverseINS_9allocatorI4CellEENS_16reverse_iteratorIPS3_EEEEE10__completeB7v160006Ev, symObjAddr: 0x5D44, symBinAddr: 0x100008484, symSize: 0x1C }
  - { offsetInCU: 0x1BC55, offset: 0x22161, size: 0x8, addend: 0x0, symName: __ZNSt3__128__exception_guard_exceptionsINS_29_AllocatorDestroyRangeReverseINS_9allocatorI4CellEENS_16reverse_iteratorIPS3_EEEEED1B7v160006Ev, symObjAddr: 0x5D60, symBinAddr: 0x1000084A0, symSize: 0x2C }
  - { offsetInCU: 0x1BC7D, offset: 0x22189, size: 0x8, addend: 0x0, symName: __ZNSt3__128__exception_guard_exceptionsINS_29_AllocatorDestroyRangeReverseINS_9allocatorI4CellEENS_16reverse_iteratorIPS3_EEEEEC1B7v160006ES8_, symObjAddr: 0x5D8C, symBinAddr: 0x1000084CC, symSize: 0x34 }
  - { offsetInCU: 0x1BCB4, offset: 0x221C0, size: 0x8, addend: 0x0, symName: __ZNSt3__128__exception_guard_exceptionsINS_29_AllocatorDestroyRangeReverseINS_9allocatorI4CellEENS_16reverse_iteratorIPS3_EEEEEC2B7v160006ES8_, symObjAddr: 0x5DC0, symBinAddr: 0x100008500, symSize: 0x30 }
  - { offsetInCU: 0x1BCEB, offset: 0x221F7, size: 0x8, addend: 0x0, symName: __ZNSt3__129_AllocatorDestroyRangeReverseINS_9allocatorI4CellEENS_16reverse_iteratorIPS2_EEEC2B7v160006ERS3_RS6_S9_, symObjAddr: 0x5DF0, symBinAddr: 0x100008530, symSize: 0x38 }
  - { offsetInCU: 0x1BD40, offset: 0x2224C, size: 0x8, addend: 0x0, symName: __ZN4CellC1ERKS_, symObjAddr: 0x5E64, symBinAddr: 0x1000085A4, symSize: 0x34 }
  - { offsetInCU: 0x1BD74, offset: 0x22280, size: 0x8, addend: 0x0, symName: __ZN4CellC2ERKS_, symObjAddr: 0x5E98, symBinAddr: 0x1000085D8, symSize: 0x48 }
  - { offsetInCU: 0x1BDA8, offset: 0x222B4, size: 0x8, addend: 0x0, symName: __ZNSt3__13mapINS_12basic_stringIcNS_11char_traitsIcEENS_9allocatorIcEEEEiNS_4lessIS6_EENS4_INS_4pairIKS6_iEEEEEC1B7v160006ERKSD_, symObjAddr: 0x5EE0, symBinAddr: 0x100008620, symSize: 0x34 }
  - { offsetInCU: 0x1BDDF, offset: 0x222EB, size: 0x8, addend: 0x0, symName: __ZNSt3__13mapINS_12basic_stringIcNS_11char_traitsIcEENS_9allocatorIcEEEEiNS_4lessIS6_EENS4_INS_4pairIKS6_iEEEEEC2B7v160006ERKSD_, symObjAddr: 0x5F14, symBinAddr: 0x100008654, symSize: 0x88 }
  - { offsetInCU: 0x1BE16, offset: 0x22322, size: 0x8, addend: 0x0, symName: __ZNSt3__16__treeINS_12__value_typeINS_12basic_stringIcNS_11char_traitsIcEENS_9allocatorIcEEEEiEENS_19__map_value_compareIS7_S8_NS_4lessIS7_EELb1EEENS5_IS8_EEEC1ERKSE_, symObjAddr: 0x5F9C, symBinAddr: 0x1000086DC, symSize: 0x34 }
  - { offsetInCU: 0x1BE50, offset: 0x2235C, size: 0x8, addend: 0x0, symName: __ZNSt3__13mapINS_12basic_stringIcNS_11char_traitsIcEENS_9allocatorIcEEEEiNS_4lessIS6_EENS4_INS_4pairIKS6_iEEEEE6insertB7v160006INS_20__map_const_iteratorINS_21__tree_const_iteratorINS_12__value_typeIS6_iEEPNS_11__tree_nodeISI_PvEElEEEEEEvT_SP_, symObjAddr: 0x5FD0, symBinAddr: 0x100008710, symSize: 0x8C }
  - { offsetInCU: 0x1BEBB, offset: 0x223C7, size: 0x8, addend: 0x0, symName: __ZNKSt3__13mapINS_12basic_stringIcNS_11char_traitsIcEENS_9allocatorIcEEEEiNS_4lessIS6_EENS4_INS_4pairIKS6_iEEEEE5beginB7v160006Ev, symObjAddr: 0x605C, symBinAddr: 0x10000879C, symSize: 0x38 }
  - { offsetInCU: 0x1BEE0, offset: 0x223EC, size: 0x8, addend: 0x0, symName: __ZNKSt3__13mapINS_12basic_stringIcNS_11char_traitsIcEENS_9allocatorIcEEEEiNS_4lessIS6_EENS4_INS_4pairIKS6_iEEEEE3endB7v160006Ev, symObjAddr: 0x6094, symBinAddr: 0x1000087D4, symSize: 0x38 }
  - { offsetInCU: 0x1BF05, offset: 0x22411, size: 0x8, addend: 0x0, symName: __ZNSt3__16__treeINS_12__value_typeINS_12basic_stringIcNS_11char_traitsIcEENS_9allocatorIcEEEEiEENS_19__map_value_compareIS7_S8_NS_4lessIS7_EELb1EEENS5_IS8_EEEC2ERKSE_, symObjAddr: 0x60CC, symBinAddr: 0x10000880C, symSize: 0x9C }
  - { offsetInCU: 0x1BF49, offset: 0x22455, size: 0x8, addend: 0x0, symName: __ZNSt3__116allocator_traitsINS_9allocatorINS_11__tree_nodeINS_12__value_typeINS_12basic_stringIcNS_11char_traitsIcEENS1_IcEEEEiEEPvEEEEE37select_on_container_copy_constructionB7v160006ISC_vvEESC_RKSC_, symObjAddr: 0x6168, symBinAddr: 0x1000088A8, symSize: 0x10 }
  - { offsetInCU: 0x1BF78, offset: 0x22484, size: 0x8, addend: 0x0, symName: __ZNKSt3__16__treeINS_12__value_typeINS_12basic_stringIcNS_11char_traitsIcEENS_9allocatorIcEEEEiEENS_19__map_value_compareIS7_S8_NS_4lessIS7_EELb1EEENS5_IS8_EEE12__node_allocB7v160006Ev, symObjAddr: 0x6178, symBinAddr: 0x1000088B8, symSize: 0x28 }
  - { offsetInCU: 0x1BFA2, offset: 0x224AE, size: 0x8, addend: 0x0, symName: __ZNSt3__117__compressed_pairINS_15__tree_end_nodeIPNS_16__tree_node_baseIPvEEEENS_9allocatorINS_11__tree_nodeINS_12__value_typeINS_12basic_stringIcNS_11char_traitsIcEENS7_IcEEEEiEES3_EEEEEC1B7v160006INS_18__default_init_tagESH_EEOT_OT0_, symObjAddr: 0x61A0, symBinAddr: 0x1000088E0, symSize: 0x3C }
  - { offsetInCU: 0x1BFF8, offset: 0x22504, size: 0x8, addend: 0x0, symName: __ZNKSt3__16__treeINS_12__value_typeINS_12basic_stringIcNS_11char_traitsIcEENS_9allocatorIcEEEEiEENS_19__map_value_compareIS7_S8_NS_4lessIS7_EELb1EEENS5_IS8_EEE10value_compB7v160006Ev, symObjAddr: 0x61DC, symBinAddr: 0x10000891C, symSize: 0x28 }
  - { offsetInCU: 0x1C01D, offset: 0x22529, size: 0x8, addend: 0x0, symName: __ZNKSt3__117__compressed_pairINS_15__tree_end_nodeIPNS_16__tree_node_baseIPvEEEENS_9allocatorINS_11__tree_nodeINS_12__value_typeINS_12basic_stringIcNS_11char_traitsIcEENS7_IcEEEEiEES3_EEEEE6secondB7v160006Ev, symObjAddr: 0x6204, symBinAddr: 0x100008944, symSize: 0x24 }
  - { offsetInCU: 0x1C042, offset: 0x2254E, size: 0x8, addend: 0x0, symName: __ZNKSt3__122__compressed_pair_elemINS_9allocatorINS_11__tree_nodeINS_12__value_typeINS_12basic_stringIcNS_11char_traitsIcEENS1_IcEEEEiEEPvEEEELi1ELb1EE5__getB7v160006Ev, symObjAddr: 0x6228, symBinAddr: 0x100008968, symSize: 0x14 }
  - { offsetInCU: 0x1C067, offset: 0x22573, size: 0x8, addend: 0x0, symName: __ZNSt3__117__compressed_pairINS_15__tree_end_nodeIPNS_16__tree_node_baseIPvEEEENS_9allocatorINS_11__tree_nodeINS_12__value_typeINS_12basic_stringIcNS_11char_traitsIcEENS7_IcEEEEiEES3_EEEEEC2B7v160006INS_18__default_init_tagESH_EEOT_OT0_, symObjAddr: 0x623C, symBinAddr: 0x10000897C, symSize: 0x40 }
  - { offsetInCU: 0x1C0BD, offset: 0x225C9, size: 0x8, addend: 0x0, symName: __ZNSt3__122__compressed_pair_elemINS_15__tree_end_nodeIPNS_16__tree_node_baseIPvEEEELi0ELb0EEC2B7v160006ENS_18__default_init_tagE, symObjAddr: 0x627C, symBinAddr: 0x1000089BC, symSize: 0x2C }
  - { offsetInCU: 0x1C0EF, offset: 0x225FB, size: 0x8, addend: 0x0, symName: __ZNSt3__122__compressed_pair_elemINS_9allocatorINS_11__tree_nodeINS_12__value_typeINS_12basic_stringIcNS_11char_traitsIcEENS1_IcEEEEiEEPvEEEELi1ELb1EEC2B7v160006ISC_vEEOT_, symObjAddr: 0x62A8, symBinAddr: 0x1000089E8, symSize: 0x18 }
  - { offsetInCU: 0x1C12F, offset: 0x2263B, size: 0x8, addend: 0x0, symName: __ZNKSt3__117__compressed_pairImNS_19__map_value_compareINS_12basic_stringIcNS_11char_traitsIcEENS_9allocatorIcEEEENS_12__value_typeIS7_iEENS_4lessIS7_EELb1EEEE6secondB7v160006Ev, symObjAddr: 0x62C0, symBinAddr: 0x100008A00, symSize: 0x24 }
  - { offsetInCU: 0x1C154, offset: 0x22660, size: 0x8, addend: 0x0, symName: __ZNKSt3__122__compressed_pair_elemINS_19__map_value_compareINS_12basic_stringIcNS_11char_traitsIcEENS_9allocatorIcEEEENS_12__value_typeIS7_iEENS_4lessIS7_EELb1EEELi1ELb1EE5__getB7v160006Ev, symObjAddr: 0x62E4, symBinAddr: 0x100008A24, symSize: 0x14 }
  - { offsetInCU: 0x1C179, offset: 0x22685, size: 0x8, addend: 0x0, symName: __ZNKSt3__13mapINS_12basic_stringIcNS_11char_traitsIcEENS_9allocatorIcEEEEiNS_4lessIS6_EENS4_INS_4pairIKS6_iEEEEE4cendB7v160006Ev, symObjAddr: 0x62F8, symBinAddr: 0x100008A38, symSize: 0x2C }
  - { offsetInCU: 0x1C19E, offset: 0x226AA, size: 0x8, addend: 0x0, symName: __ZNSt3__13mapINS_12basic_stringIcNS_11char_traitsIcEENS_9allocatorIcEEEEiNS_4lessIS6_EENS4_INS_4pairIKS6_iEEEEE6insertB7v160006ENS_20__map_const_iteratorINS_21__tree_const_iteratorINS_12__value_typeIS6_iEEPNS_11__tree_nodeISH_PvEElEEEERKSB_, symObjAddr: 0x6354, symBinAddr: 0x100008A94, symSize: 0x50 }
  - { offsetInCU: 0x1C1E1, offset: 0x226ED, size: 0x8, addend: 0x0, symName: __ZNSt3__120__map_const_iteratorINS_21__tree_const_iteratorINS_12__value_typeINS_12basic_stringIcNS_11char_traitsIcEENS_9allocatorIcEEEEiEEPNS_11__tree_nodeIS9_PvEElEEEC1B7v160006ESE_, symObjAddr: 0x63A4, symBinAddr: 0x100008AE4, symSize: 0x34 }
  - { offsetInCU: 0x1C218, offset: 0x22724, size: 0x8, addend: 0x0, symName: __ZNKSt3__120__map_const_iteratorINS_21__tree_const_iteratorINS_12__value_typeINS_12basic_stringIcNS_11char_traitsIcEENS_9allocatorIcEEEEiEEPNS_11__tree_nodeIS9_PvEElEEEdeB7v160006Ev, symObjAddr: 0x63D8, symBinAddr: 0x100008B18, symSize: 0x28 }
  - { offsetInCU: 0x1C23D, offset: 0x22749, size: 0x8, addend: 0x0, symName: __ZNSt3__120__map_const_iteratorINS_21__tree_const_iteratorINS_12__value_typeINS_12basic_stringIcNS_11char_traitsIcEENS_9allocatorIcEEEEiEEPNS_11__tree_nodeIS9_PvEElEEEppB7v160006Ev, symObjAddr: 0x6400, symBinAddr: 0x100008B40, symSize: 0x2C }
  - { offsetInCU: 0x1C262, offset: 0x2276E, size: 0x8, addend: 0x0, symName: __ZNSt3__16__treeINS_12__value_typeINS_12basic_stringIcNS_11char_traitsIcEENS_9allocatorIcEEEEiEENS_19__map_value_compareIS7_S8_NS_4lessIS7_EELb1EEENS5_IS8_EEE15__insert_uniqueB7v160006ENS_21__tree_const_iteratorIS8_PNS_11__tree_nodeIS8_PvEElEERKNS_4pairIKS7_iEE, symObjAddr: 0x6490, symBinAddr: 0x100008BD0, symSize: 0x64 }
  - { offsetInCU: 0x1C2A5, offset: 0x227B1, size: 0x8, addend: 0x0, symName: __ZNSt3__114__map_iteratorINS_15__tree_iteratorINS_12__value_typeINS_12basic_stringIcNS_11char_traitsIcEENS_9allocatorIcEEEEiEEPNS_11__tree_nodeIS9_PvEElEEEC1B7v160006ESE_, symObjAddr: 0x64F4, symBinAddr: 0x100008C34, symSize: 0x34 }
  - { offsetInCU: 0x1C2DC, offset: 0x227E8, size: 0x8, addend: 0x0, symName: __ZNSt3__16__treeINS_12__value_typeINS_12basic_stringIcNS_11char_traitsIcEENS_9allocatorIcEEEEiEENS_19__map_value_compareIS7_S8_NS_4lessIS7_EELb1EEENS5_IS8_EEE30__emplace_hint_unique_key_argsIS7_JRKNS_4pairIKS7_iEEEEENSG_INS_15__tree_iteratorIS8_PNS_11__tree_nodeIS8_PvEElEEbEENS_21__tree_const_iteratorIS8_SP_lEERKT_DpOT0_, symObjAddr: 0x6528, symBinAddr: 0x100008C68, symSize: 0x104 }
  - { offsetInCU: 0x1C3AE, offset: 0x228BA, size: 0x8, addend: 0x0, symName: __ZNSt3__122__tree_key_value_typesINS_12__value_typeINS_12basic_stringIcNS_11char_traitsIcEENS_9allocatorIcEEEEiEEE9__get_keyB7v160006IKNS_4pairIKS7_iEEEENS_9enable_ifIXsr17__is_same_uncvrefIT_SD_EE5valueERSC_E4typeERSG_, symObjAddr: 0x662C, symBinAddr: 0x100008D6C, symSize: 0x14 }
  - { offsetInCU: 0x1C3DB, offset: 0x228E7, size: 0x8, addend: 0x0, symName: __ZNSt3__16__treeINS_12__value_typeINS_12basic_stringIcNS_11char_traitsIcEENS_9allocatorIcEEEEiEENS_19__map_value_compareIS7_S8_NS_4lessIS7_EELb1EEENS5_IS8_EEE12__find_equalIS7_EERPNS_16__tree_node_baseIPvEENS_21__tree_const_iteratorIS8_PNS_11__tree_nodeIS8_SH_EElEERPNS_15__tree_end_nodeISJ_EESK_RKT_, symObjAddr: 0x6640, symBinAddr: 0x100008D80, symSize: 0x304 }
  - { offsetInCU: 0x1C487, offset: 0x22993, size: 0x8, addend: 0x0, symName: __ZNSt3__16__treeINS_12__value_typeINS_12basic_stringIcNS_11char_traitsIcEENS_9allocatorIcEEEEiEENS_19__map_value_compareIS7_S8_NS_4lessIS7_EELb1EEENS5_IS8_EEE16__construct_nodeIJRKNS_4pairIKS7_iEEEEENS_10unique_ptrINS_11__tree_nodeIS8_PvEENS_22__tree_node_destructorINS5_ISO_EEEEEEDpOT_, symObjAddr: 0x6944, symBinAddr: 0x100009084, symSize: 0x110 }
  - { offsetInCU: 0x1C4E9, offset: 0x229F5, size: 0x8, addend: 0x0, symName: __ZNSt3__16__treeINS_12__value_typeINS_12basic_stringIcNS_11char_traitsIcEENS_9allocatorIcEEEEiEENS_19__map_value_compareIS7_S8_NS_4lessIS7_EELb1EEENS5_IS8_EEE16__insert_node_atEPNS_15__tree_end_nodeIPNS_16__tree_node_baseIPvEEEERSJ_SJ_, symObjAddr: 0x6A54, symBinAddr: 0x100009194, symSize: 0xCC }
  - { offsetInCU: 0x1C53D, offset: 0x22A49, size: 0x8, addend: 0x0, symName: __ZNKSt3__110unique_ptrINS_11__tree_nodeINS_12__value_typeINS_12basic_stringIcNS_11char_traitsIcEENS_9allocatorIcEEEEiEEPvEENS_22__tree_node_destructorINS6_ISB_EEEEE3getB7v160006Ev, symObjAddr: 0x6B20, symBinAddr: 0x100009260, symSize: 0x28 }
  - { offsetInCU: 0x1C562, offset: 0x22A6E, size: 0x8, addend: 0x0, symName: __ZNSt3__110unique_ptrINS_11__tree_nodeINS_12__value_typeINS_12basic_stringIcNS_11char_traitsIcEENS_9allocatorIcEEEEiEEPvEENS_22__tree_node_destructorINS6_ISB_EEEEE7releaseB7v160006Ev, symObjAddr: 0x6B48, symBinAddr: 0x100009288, symSize: 0x44 }
  - { offsetInCU: 0x1C597, offset: 0x22AA3, size: 0x8, addend: 0x0, symName: __ZNSt3__110unique_ptrINS_11__tree_nodeINS_12__value_typeINS_12basic_stringIcNS_11char_traitsIcEENS_9allocatorIcEEEEiEEPvEENS_22__tree_node_destructorINS6_ISB_EEEEED1B7v160006Ev, symObjAddr: 0x6B8C, symBinAddr: 0x1000092CC, symSize: 0x2C }
  - { offsetInCU: 0x1C5BF, offset: 0x22ACB, size: 0x8, addend: 0x0, symName: __ZNSt3__115__tree_iteratorINS_12__value_typeINS_12basic_stringIcNS_11char_traitsIcEENS_9allocatorIcEEEEiEEPNS_11__tree_nodeIS8_PvEElEC1B7v160006ESC_, symObjAddr: 0x6BB8, symBinAddr: 0x1000092F8, symSize: 0x34 }
  - { offsetInCU: 0x1C600, offset: 0x22B0C, size: 0x8, addend: 0x0, symName: __ZNSt3__14pairINS_15__tree_iteratorINS_12__value_typeINS_12basic_stringIcNS_11char_traitsIcEENS_9allocatorIcEEEEiEEPNS_11__tree_nodeIS9_PvEElEEbEC1B7v160006ISE_RbLSB_0EEEOT_OT0_, symObjAddr: 0x6BEC, symBinAddr: 0x10000932C, symSize: 0x3C }
  - { offsetInCU: 0x1C65C, offset: 0x22B68, size: 0x8, addend: 0x0, symName: __ZNSt3__16__treeINS_12__value_typeINS_12basic_stringIcNS_11char_traitsIcEENS_9allocatorIcEEEEiEENS_19__map_value_compareIS7_S8_NS_4lessIS7_EELb1EEENS5_IS8_EEE3endB7v160006Ev, symObjAddr: 0x6C28, symBinAddr: 0x100009368, symSize: 0x34 }
  - { offsetInCU: 0x1C681, offset: 0x22B8D, size: 0x8, addend: 0x0, symName: __ZNSt3__121__tree_const_iteratorINS_12__value_typeINS_12basic_stringIcNS_11char_traitsIcEENS_9allocatorIcEEEEiEEPNS_11__tree_nodeIS8_PvEElEC1B7v160006ENS_15__tree_iteratorIS8_SC_lEE, symObjAddr: 0x6C5C, symBinAddr: 0x10000939C, symSize: 0x34 }
  - { offsetInCU: 0x1C6B8, offset: 0x22BC4, size: 0x8, addend: 0x0, symName: __ZNSt3__16__treeINS_12__value_typeINS_12basic_stringIcNS_11char_traitsIcEENS_9allocatorIcEEEEiEENS_19__map_value_compareIS7_S8_NS_4lessIS7_EELb1EEENS5_IS8_EEE10value_compB7v160006Ev, symObjAddr: 0x6C90, symBinAddr: 0x1000093D0, symSize: 0x28 }
  - { offsetInCU: 0x1C6DD, offset: 0x22BE9, size: 0x8, addend: 0x0, symName: __ZNKSt3__119__map_value_compareINS_12basic_stringIcNS_11char_traitsIcEENS_9allocatorIcEEEENS_12__value_typeIS6_iEENS_4lessIS6_EELb1EEclB7v160006ERKS6_RKS8_, symObjAddr: 0x6CB8, symBinAddr: 0x1000093F8, symSize: 0x50 }
  - { offsetInCU: 0x1C720, offset: 0x22C2C, size: 0x8, addend: 0x0, symName: __ZNKSt3__121__tree_const_iteratorINS_12__value_typeINS_12basic_stringIcNS_11char_traitsIcEENS_9allocatorIcEEEEiEEPNS_11__tree_nodeIS8_PvEElEdeB7v160006Ev, symObjAddr: 0x6D08, symBinAddr: 0x100009448, symSize: 0x28 }
  - { offsetInCU: 0x1C745, offset: 0x22C51, size: 0x8, addend: 0x0, symName: __ZNSt3__16__treeINS_12__value_typeINS_12basic_stringIcNS_11char_traitsIcEENS_9allocatorIcEEEEiEENS_19__map_value_compareIS7_S8_NS_4lessIS7_EELb1EEENS5_IS8_EEE5beginB7v160006Ev, symObjAddr: 0x6D30, symBinAddr: 0x100009470, symSize: 0x34 }
  - { offsetInCU: 0x1C76A, offset: 0x22C76, size: 0x8, addend: 0x0, symName: __ZNKSt3__119__map_value_compareINS_12basic_stringIcNS_11char_traitsIcEENS_9allocatorIcEEEENS_12__value_typeIS6_iEENS_4lessIS6_EELb1EEclB7v160006ERKS8_RKS6_, symObjAddr: 0x6D64, symBinAddr: 0x1000094A4, symSize: 0x48 }
  - { offsetInCU: 0x1C7AD, offset: 0x22CB9, size: 0x8, addend: 0x0, symName: __ZNSt3__121__tree_const_iteratorINS_12__value_typeINS_12basic_stringIcNS_11char_traitsIcEENS_9allocatorIcEEEEiEEPNS_11__tree_nodeIS8_PvEElEmmB7v160006Ev, symObjAddr: 0x6DAC, symBinAddr: 0x1000094EC, symSize: 0x38 }
  - { offsetInCU: 0x1C7D2, offset: 0x22CDE, size: 0x8, addend: 0x0, symName: __ZNSt3__16__treeINS_12__value_typeINS_12basic_stringIcNS_11char_traitsIcEENS_9allocatorIcEEEEiEENS_19__map_value_compareIS7_S8_NS_4lessIS7_EELb1EEENS5_IS8_EEE12__find_equalIS7_EERPNS_16__tree_node_baseIPvEERPNS_15__tree_end_nodeISJ_EERKT_, symObjAddr: 0x6DE4, symBinAddr: 0x100009524, symSize: 0x184 }
  - { offsetInCU: 0x1C840, offset: 0x22D4C, size: 0x8, addend: 0x0, symName: __ZNKSt3__121__tree_const_iteratorINS_12__value_typeINS_12basic_stringIcNS_11char_traitsIcEENS_9allocatorIcEEEEiEEPNS_11__tree_nodeIS8_PvEElE8__get_npB7v160006Ev, symObjAddr: 0x6FB8, symBinAddr: 0x1000096F8, symSize: 0x18 }
  - { offsetInCU: 0x1C865, offset: 0x22D71, size: 0x8, addend: 0x0, symName: __ZNSt3__115__tree_iteratorINS_12__value_typeINS_12basic_stringIcNS_11char_traitsIcEENS_9allocatorIcEEEEiEEPNS_11__tree_nodeIS8_PvEElEC1B7v160006EPNS_15__tree_end_nodeIPNS_16__tree_node_baseISA_EEEE, symObjAddr: 0x6FD0, symBinAddr: 0x100009710, symSize: 0x34 }
  - { offsetInCU: 0x1C89C, offset: 0x22DA8, size: 0x8, addend: 0x0, symName: __ZNSt3__115__tree_iteratorINS_12__value_typeINS_12basic_stringIcNS_11char_traitsIcEENS_9allocatorIcEEEEiEEPNS_11__tree_nodeIS8_PvEElEC2B7v160006EPNS_15__tree_end_nodeIPNS_16__tree_node_baseISA_EEEE, symObjAddr: 0x7004, symBinAddr: 0x100009744, symSize: 0x20 }
  - { offsetInCU: 0x1C8D3, offset: 0x22DDF, size: 0x8, addend: 0x0, symName: __ZNSt3__121__tree_const_iteratorINS_12__value_typeINS_12basic_stringIcNS_11char_traitsIcEENS_9allocatorIcEEEEiEEPNS_11__tree_nodeIS8_PvEElEC2B7v160006ENS_15__tree_iteratorIS8_SC_lEE, symObjAddr: 0x7024, symBinAddr: 0x100009764, symSize: 0x20 }
  - { offsetInCU: 0x1C90A, offset: 0x22E16, size: 0x8, addend: 0x0, symName: __ZNSt3__117__compressed_pairImNS_19__map_value_compareINS_12basic_stringIcNS_11char_traitsIcEENS_9allocatorIcEEEENS_12__value_typeIS7_iEENS_4lessIS7_EELb1EEEE6secondB7v160006Ev, symObjAddr: 0x7044, symBinAddr: 0x100009784, symSize: 0x24 }
  - { offsetInCU: 0x1C92F, offset: 0x22E3B, size: 0x8, addend: 0x0, symName: __ZNSt3__122__compressed_pair_elemINS_19__map_value_compareINS_12basic_stringIcNS_11char_traitsIcEENS_9allocatorIcEEEENS_12__value_typeIS7_iEENS_4lessIS7_EELb1EEELi1ELb1EE5__getB7v160006Ev, symObjAddr: 0x7068, symBinAddr: 0x1000097A8, symSize: 0x14 }
  - { offsetInCU: 0x1C954, offset: 0x22E60, size: 0x8, addend: 0x0, symName: __ZNKSt3__14lessINS_12basic_stringIcNS_11char_traitsIcEENS_9allocatorIcEEEEEclB7v160006ERKS6_S9_, symObjAddr: 0x707C, symBinAddr: 0x1000097BC, symSize: 0x50 }
  - { offsetInCU: 0x1C997, offset: 0x22EA3, size: 0x8, addend: 0x0, symName: __ZNKSt3__112__value_typeINS_12basic_stringIcNS_11char_traitsIcEENS_9allocatorIcEEEEiE11__get_valueB7v160006Ev, symObjAddr: 0x70CC, symBinAddr: 0x10000980C, symSize: 0x24 }
  - { offsetInCU: 0x1C9CB, offset: 0x22ED7, size: 0x8, addend: 0x0, symName: __ZNSt3__120_CmpUnspecifiedParamC1B7v160006EMS0_i, symObjAddr: 0x7170, symBinAddr: 0x1000098B0, symSize: 0x34 }
  - { offsetInCU: 0x1C9FD, offset: 0x22F09, size: 0x8, addend: 0x0, symName: __ZNKSt3__112basic_stringIcNS_11char_traitsIcEENS_9allocatorIcEEEcvNS_17basic_string_viewIcS2_EEB7v160006Ev, symObjAddr: 0x7220, symBinAddr: 0x100009960, symSize: 0x50 }
  - { offsetInCU: 0x1CA22, offset: 0x22F2E, size: 0x8, addend: 0x0, symName: __ZNKSt3__117basic_string_viewIcNS_11char_traitsIcEEE7compareES3_, symObjAddr: 0x7270, symBinAddr: 0x1000099B0, symSize: 0x13C }
  - { offsetInCU: 0x1CA76, offset: 0x22F82, size: 0x8, addend: 0x0, symName: __ZNKSt3__117basic_string_viewIcNS_11char_traitsIcEEE4sizeB7v160006Ev, symObjAddr: 0x73AC, symBinAddr: 0x100009AEC, symSize: 0x18 }
  - { offsetInCU: 0x1CA9B, offset: 0x22FA7, size: 0x8, addend: 0x0, symName: __ZNSt3__111char_traitsIcE7compareEPKcS3_m, symObjAddr: 0x73C4, symBinAddr: 0x100009B04, symSize: 0x6C }
  - { offsetInCU: 0x1CAD9, offset: 0x22FE5, size: 0x8, addend: 0x0, symName: __ZNKSt3__117basic_string_viewIcNS_11char_traitsIcEEE4dataB7v160006Ev, symObjAddr: 0x7430, symBinAddr: 0x100009B70, symSize: 0x18 }
  - { offsetInCU: 0x1CAFE, offset: 0x2300A, size: 0x8, addend: 0x0, symName: __ZNKSt3__112basic_stringIcNS_11char_traitsIcEENS_9allocatorIcEEE4dataB7v160006Ev, symObjAddr: 0x747C, symBinAddr: 0x100009BBC, symSize: 0x28 }
  - { offsetInCU: 0x1CB23, offset: 0x2302F, size: 0x8, addend: 0x0, symName: __ZNKSt3__112basic_stringIcNS_11char_traitsIcEENS_9allocatorIcEEE4sizeB7v160006Ev, symObjAddr: 0x74A4, symBinAddr: 0x100009BE4, symSize: 0x54 }
  - { offsetInCU: 0x1CB48, offset: 0x23054, size: 0x8, addend: 0x0, symName: __ZNSt3__117basic_string_viewIcNS_11char_traitsIcEEEC1B7v160006EPKcm, symObjAddr: 0x74F8, symBinAddr: 0x100009C38, symSize: 0x3C }
  - { offsetInCU: 0x1CB8E, offset: 0x2309A, size: 0x8, addend: 0x0, symName: __ZNKSt3__112basic_stringIcNS_11char_traitsIcEENS_9allocatorIcEEE13__get_pointerB7v160006Ev, symObjAddr: 0x7548, symBinAddr: 0x100009C88, symSize: 0x54 }
  - { offsetInCU: 0x1CBB3, offset: 0x230BF, size: 0x8, addend: 0x0, symName: __ZNKSt3__112basic_stringIcNS_11char_traitsIcEENS_9allocatorIcEEE9__is_longB7v160006Ev, symObjAddr: 0x759C, symBinAddr: 0x100009CDC, symSize: 0x38 }
  - { offsetInCU: 0x1CBD8, offset: 0x230E4, size: 0x8, addend: 0x0, symName: __ZNKSt3__112basic_stringIcNS_11char_traitsIcEENS_9allocatorIcEEE18__get_long_pointerB7v160006Ev, symObjAddr: 0x75D4, symBinAddr: 0x100009D14, symSize: 0x28 }
  - { offsetInCU: 0x1CBFD, offset: 0x23109, size: 0x8, addend: 0x0, symName: __ZNKSt3__112basic_stringIcNS_11char_traitsIcEENS_9allocatorIcEEE19__get_short_pointerB7v160006Ev, symObjAddr: 0x75FC, symBinAddr: 0x100009D3C, symSize: 0x28 }
  - { offsetInCU: 0x1CC22, offset: 0x2312E, size: 0x8, addend: 0x0, symName: __ZNKSt3__117__compressed_pairINS_12basic_stringIcNS_11char_traitsIcEENS_9allocatorIcEEE5__repES5_E5firstB7v160006Ev, symObjAddr: 0x7624, symBinAddr: 0x100009D64, symSize: 0x24 }
  - { offsetInCU: 0x1CC47, offset: 0x23153, size: 0x8, addend: 0x0, symName: __ZNKSt3__122__compressed_pair_elemINS_12basic_stringIcNS_11char_traitsIcEENS_9allocatorIcEEE5__repELi0ELb0EE5__getB7v160006Ev, symObjAddr: 0x7648, symBinAddr: 0x100009D88, symSize: 0x14 }
  - { offsetInCU: 0x1CC6C, offset: 0x23178, size: 0x8, addend: 0x0, symName: __ZNSt3__114pointer_traitsIPKcE10pointer_toB7v160006ERS1_, symObjAddr: 0x765C, symBinAddr: 0x100009D9C, symSize: 0x14 }
  - { offsetInCU: 0x1CC8F, offset: 0x2319B, size: 0x8, addend: 0x0, symName: __ZNKSt3__112basic_stringIcNS_11char_traitsIcEENS_9allocatorIcEEE15__get_long_sizeB7v160006Ev, symObjAddr: 0x7670, symBinAddr: 0x100009DB0, symSize: 0x28 }
  - { offsetInCU: 0x1CCB4, offset: 0x231C0, size: 0x8, addend: 0x0, symName: __ZNKSt3__112basic_stringIcNS_11char_traitsIcEENS_9allocatorIcEEE16__get_short_sizeB7v160006Ev, symObjAddr: 0x7698, symBinAddr: 0x100009DD8, symSize: 0x34 }
  - { offsetInCU: 0x1CCD9, offset: 0x231E5, size: 0x8, addend: 0x0, symName: __ZNSt3__117basic_string_viewIcNS_11char_traitsIcEEEC2B7v160006EPKcm, symObjAddr: 0x76CC, symBinAddr: 0x100009E0C, symSize: 0x50 }
  - { offsetInCU: 0x1CD1F, offset: 0x2322B, size: 0x8, addend: 0x0, symName: __ZNSt3__120_CmpUnspecifiedParamC2B7v160006EMS0_i, symObjAddr: 0x771C, symBinAddr: 0x100009E5C, symSize: 0x18 }
  - { offsetInCU: 0x1CD51, offset: 0x2325D, size: 0x8, addend: 0x0, symName: __ZNKSt3__116__tree_node_baseIPvE15__parent_unsafeB7v160006Ev, symObjAddr: 0x787C, symBinAddr: 0x100009FBC, symSize: 0x18 }
  - { offsetInCU: 0x1CD76, offset: 0x23282, size: 0x8, addend: 0x0, symName: __ZNKSt3__16__treeINS_12__value_typeINS_12basic_stringIcNS_11char_traitsIcEENS_9allocatorIcEEEEiEENS_19__map_value_compareIS7_S8_NS_4lessIS7_EELb1EEENS5_IS8_EEE10__root_ptrEv, symObjAddr: 0x7894, symBinAddr: 0x100009FD4, symSize: 0x24 }
  - { offsetInCU: 0x1CD9B, offset: 0x232A7, size: 0x8, addend: 0x0, symName: __ZNSt3__121__tree_const_iteratorINS_12__value_typeINS_12basic_stringIcNS_11char_traitsIcEENS_9allocatorIcEEEEiEEPNS_11__tree_nodeIS8_PvEElEppB7v160006Ev, symObjAddr: 0x79AC, symBinAddr: 0x10000A0EC, symSize: 0x38 }
  - { offsetInCU: 0x1CDC0, offset: 0x232CC, size: 0x8, addend: 0x0, symName: __ZNSt3__116allocator_traitsINS_9allocatorINS_11__tree_nodeINS_12__value_typeINS_12basic_stringIcNS_11char_traitsIcEENS1_IcEEEEiEEPvEEEEE8allocateB7v160006ERSC_m, symObjAddr: 0x7AA4, symBinAddr: 0x10000A1E4, symSize: 0x2C }
  - { offsetInCU: 0x1CDF2, offset: 0x232FE, size: 0x8, addend: 0x0, symName: __ZNSt3__122__tree_node_destructorINS_9allocatorINS_11__tree_nodeINS_12__value_typeINS_12basic_stringIcNS_11char_traitsIcEENS1_IcEEEEiEEPvEEEEEC1B7v160006ERSC_b, symObjAddr: 0x7AD0, symBinAddr: 0x10000A210, symSize: 0x48 }
  - { offsetInCU: 0x1CE3D, offset: 0x23349, size: 0x8, addend: 0x0, symName: __ZNSt3__110unique_ptrINS_11__tree_nodeINS_12__value_typeINS_12basic_stringIcNS_11char_traitsIcEENS_9allocatorIcEEEEiEEPvEENS_22__tree_node_destructorINS6_ISB_EEEEEC1B7v160006ILb1EvEEPSB_NS_16__dependent_typeINS_27__unique_ptr_deleter_sfinaeISE_EEXT_EE20__good_rval_ref_typeE, symObjAddr: 0x7B18, symBinAddr: 0x10000A258, symSize: 0x3C }
  - { offsetInCU: 0x1CE8C, offset: 0x23398, size: 0x8, addend: 0x0, symName: __ZNSt3__116allocator_traitsINS_9allocatorINS_11__tree_nodeINS_12__value_typeINS_12basic_stringIcNS_11char_traitsIcEENS1_IcEEEEiEEPvEEEEE9constructB7v160006INS_4pairIKS8_iEEJRKSH_EvvEEvRSC_PT_DpOT0_, symObjAddr: 0x7B54, symBinAddr: 0x10000A294, symSize: 0x30 }
  - { offsetInCU: 0x1CEE0, offset: 0x233EC, size: 0x8, addend: 0x0, symName: __ZNKSt3__110unique_ptrINS_11__tree_nodeINS_12__value_typeINS_12basic_stringIcNS_11char_traitsIcEENS_9allocatorIcEEEEiEEPvEENS_22__tree_node_destructorINS6_ISB_EEEEEptB7v160006Ev, symObjAddr: 0x7B84, symBinAddr: 0x10000A2C4, symSize: 0x28 }
  - { offsetInCU: 0x1CF05, offset: 0x23411, size: 0x8, addend: 0x0, symName: __ZNSt3__110unique_ptrINS_11__tree_nodeINS_12__value_typeINS_12basic_stringIcNS_11char_traitsIcEENS_9allocatorIcEEEEiEEPvEENS_22__tree_node_destructorINS6_ISB_EEEEE11get_deleterB7v160006Ev, symObjAddr: 0x7BAC, symBinAddr: 0x10000A2EC, symSize: 0x24 }
  - { offsetInCU: 0x1CF2A, offset: 0x23436, size: 0x8, addend: 0x0, symName: __ZNSt3__19allocatorINS_11__tree_nodeINS_12__value_typeINS_12basic_stringIcNS_11char_traitsIcEENS0_IcEEEEiEEPvEEE8allocateB7v160006Em, symObjAddr: 0x7BD0, symBinAddr: 0x10000A310, symSize: 0x58 }
  - { offsetInCU: 0x1CF5D, offset: 0x23469, size: 0x8, addend: 0x0, symName: __ZNSt3__116allocator_traitsINS_9allocatorINS_11__tree_nodeINS_12__value_typeINS_12basic_stringIcNS_11char_traitsIcEENS1_IcEEEEiEEPvEEEEE8max_sizeB7v160006ISC_vvEEmRKSC_, symObjAddr: 0x7C28, symBinAddr: 0x10000A368, symSize: 0x28 }
  - { offsetInCU: 0x1CF88, offset: 0x23494, size: 0x8, addend: 0x0, symName: __ZNSt3__122__tree_node_destructorINS_9allocatorINS_11__tree_nodeINS_12__value_typeINS_12basic_stringIcNS_11char_traitsIcEENS1_IcEEEEiEEPvEEEEEC2B7v160006ERSC_b, symObjAddr: 0x7C50, symBinAddr: 0x10000A390, symSize: 0x38 }
  - { offsetInCU: 0x1CFCE, offset: 0x234DA, size: 0x8, addend: 0x0, symName: __ZNSt3__110unique_ptrINS_11__tree_nodeINS_12__value_typeINS_12basic_stringIcNS_11char_traitsIcEENS_9allocatorIcEEEEiEEPvEENS_22__tree_node_destructorINS6_ISB_EEEEEC2B7v160006ILb1EvEEPSB_NS_16__dependent_typeINS_27__unique_ptr_deleter_sfinaeISE_EEXT_EE20__good_rval_ref_typeE, symObjAddr: 0x7C88, symBinAddr: 0x10000A3C8, symSize: 0x48 }
  - { offsetInCU: 0x1D01D, offset: 0x23529, size: 0x8, addend: 0x0, symName: __ZNSt3__117__compressed_pairIPNS_11__tree_nodeINS_12__value_typeINS_12basic_stringIcNS_11char_traitsIcEENS_9allocatorIcEEEEiEEPvEENS_22__tree_node_destructorINS6_ISB_EEEEEC1B7v160006IRSC_SF_EEOT_OT0_, symObjAddr: 0x7CD0, symBinAddr: 0x10000A410, symSize: 0x3C }
  - { offsetInCU: 0x1D073, offset: 0x2357F, size: 0x8, addend: 0x0, symName: __ZNSt3__117__compressed_pairIPNS_11__tree_nodeINS_12__value_typeINS_12basic_stringIcNS_11char_traitsIcEENS_9allocatorIcEEEEiEEPvEENS_22__tree_node_destructorINS6_ISB_EEEEEC2B7v160006IRSC_SF_EEOT_OT0_, symObjAddr: 0x7D0C, symBinAddr: 0x10000A44C, symSize: 0x48 }
  - { offsetInCU: 0x1D0C9, offset: 0x235D5, size: 0x8, addend: 0x0, symName: __ZNSt3__122__compressed_pair_elemIPNS_11__tree_nodeINS_12__value_typeINS_12basic_stringIcNS_11char_traitsIcEENS_9allocatorIcEEEEiEEPvEELi0ELb0EEC2B7v160006IRSC_vEEOT_, symObjAddr: 0x7D54, symBinAddr: 0x10000A494, symSize: 0x24 }
  - { offsetInCU: 0x1D109, offset: 0x23615, size: 0x8, addend: 0x0, symName: __ZNSt3__122__compressed_pair_elemINS_22__tree_node_destructorINS_9allocatorINS_11__tree_nodeINS_12__value_typeINS_12basic_stringIcNS_11char_traitsIcEENS2_IcEEEEiEEPvEEEEEELi1ELb0EEC2B7v160006ISE_vEEOT_, symObjAddr: 0x7D78, symBinAddr: 0x10000A4B8, symSize: 0x24 }
  - { offsetInCU: 0x1D149, offset: 0x23655, size: 0x8, addend: 0x0, symName: __ZNSt3__14pairIKNS_12basic_stringIcNS_11char_traitsIcEENS_9allocatorIcEEEEiEC1ERKS8_, symObjAddr: 0x7DD8, symBinAddr: 0x10000A518, symSize: 0x34 }
  - { offsetInCU: 0x1D17B, offset: 0x23687, size: 0x8, addend: 0x0, symName: __ZNSt3__14pairIKNS_12basic_stringIcNS_11char_traitsIcEENS_9allocatorIcEEEEiEC2ERKS8_, symObjAddr: 0x7E0C, symBinAddr: 0x10000A54C, symSize: 0x40 }
  - { offsetInCU: 0x1D1AD, offset: 0x236B9, size: 0x8, addend: 0x0, symName: __ZNKSt3__117__compressed_pairIPNS_11__tree_nodeINS_12__value_typeINS_12basic_stringIcNS_11char_traitsIcEENS_9allocatorIcEEEEiEEPvEENS_22__tree_node_destructorINS6_ISB_EEEEE5firstB7v160006Ev, symObjAddr: 0x7E4C, symBinAddr: 0x10000A58C, symSize: 0x24 }
  - { offsetInCU: 0x1D1D2, offset: 0x236DE, size: 0x8, addend: 0x0, symName: __ZNKSt3__122__compressed_pair_elemIPNS_11__tree_nodeINS_12__value_typeINS_12basic_stringIcNS_11char_traitsIcEENS_9allocatorIcEEEEiEEPvEELi0ELb0EE5__getB7v160006Ev, symObjAddr: 0x7E70, symBinAddr: 0x10000A5B0, symSize: 0x14 }
  - { offsetInCU: 0x1D1F7, offset: 0x23703, size: 0x8, addend: 0x0, symName: __ZNSt3__117__compressed_pairIPNS_11__tree_nodeINS_12__value_typeINS_12basic_stringIcNS_11char_traitsIcEENS_9allocatorIcEEEEiEEPvEENS_22__tree_node_destructorINS6_ISB_EEEEE6secondB7v160006Ev, symObjAddr: 0x7E84, symBinAddr: 0x10000A5C4, symSize: 0x28 }
  - { offsetInCU: 0x1D21C, offset: 0x23728, size: 0x8, addend: 0x0, symName: __ZNSt3__122__compressed_pair_elemINS_22__tree_node_destructorINS_9allocatorINS_11__tree_nodeINS_12__value_typeINS_12basic_stringIcNS_11char_traitsIcEENS2_IcEEEEiEEPvEEEEEELi1ELb0EE5__getB7v160006Ev, symObjAddr: 0x7EAC, symBinAddr: 0x10000A5EC, symSize: 0x14 }
  - { offsetInCU: 0x1D241, offset: 0x2374D, size: 0x8, addend: 0x0, symName: __ZNSt3__16__treeINS_12__value_typeINS_12basic_stringIcNS_11char_traitsIcEENS_9allocatorIcEEEEiEENS_19__map_value_compareIS7_S8_NS_4lessIS7_EELb1EEENS5_IS8_EEE4sizeB7v160006Ev, symObjAddr: 0x813C, symBinAddr: 0x10000A87C, symSize: 0x28 }
  - { offsetInCU: 0x1D266, offset: 0x23772, size: 0x8, addend: 0x0, symName: __ZNSt3__116__tree_node_baseIPvE12__set_parentB7v160006EPS2_, symObjAddr: 0x8308, symBinAddr: 0x10000AA48, symSize: 0x20 }
  - { offsetInCU: 0x1D29A, offset: 0x237A6, size: 0x8, addend: 0x0, symName: __ZNSt3__117__compressed_pairImNS_19__map_value_compareINS_12basic_stringIcNS_11char_traitsIcEENS_9allocatorIcEEEENS_12__value_typeIS7_iEENS_4lessIS7_EELb1EEEE5firstB7v160006Ev, symObjAddr: 0x8328, symBinAddr: 0x10000AA68, symSize: 0x24 }
  - { offsetInCU: 0x1D2BF, offset: 0x237CB, size: 0x8, addend: 0x0, symName: __ZNSt3__122__compressed_pair_elemImLi0ELb0EE5__getB7v160006Ev, symObjAddr: 0x834C, symBinAddr: 0x10000AA8C, symSize: 0x14 }
  - { offsetInCU: 0x1D2E4, offset: 0x237F0, size: 0x8, addend: 0x0, symName: __ZNSt3__117__compressed_pairIPNS_11__tree_nodeINS_12__value_typeINS_12basic_stringIcNS_11char_traitsIcEENS_9allocatorIcEEEEiEEPvEENS_22__tree_node_destructorINS6_ISB_EEEEE5firstB7v160006Ev, symObjAddr: 0x8360, symBinAddr: 0x10000AAA0, symSize: 0x24 }
  - { offsetInCU: 0x1D309, offset: 0x23815, size: 0x8, addend: 0x0, symName: __ZNSt3__122__compressed_pair_elemIPNS_11__tree_nodeINS_12__value_typeINS_12basic_stringIcNS_11char_traitsIcEENS_9allocatorIcEEEEiEEPvEELi0ELb0EE5__getB7v160006Ev, symObjAddr: 0x8384, symBinAddr: 0x10000AAC4, symSize: 0x14 }
  - { offsetInCU: 0x1D32E, offset: 0x2383A, size: 0x8, addend: 0x0, symName: __ZNSt3__110unique_ptrINS_11__tree_nodeINS_12__value_typeINS_12basic_stringIcNS_11char_traitsIcEENS_9allocatorIcEEEEiEEPvEENS_22__tree_node_destructorINS6_ISB_EEEEED2B7v160006Ev, symObjAddr: 0x8398, symBinAddr: 0x10000AAD8, symSize: 0x30 }
  - { offsetInCU: 0x1D356, offset: 0x23862, size: 0x8, addend: 0x0, symName: __ZNSt3__110unique_ptrINS_11__tree_nodeINS_12__value_typeINS_12basic_stringIcNS_11char_traitsIcEENS_9allocatorIcEEEEiEEPvEENS_22__tree_node_destructorINS6_ISB_EEEEE5resetB7v160006EPSB_, symObjAddr: 0x83C8, symBinAddr: 0x10000AB08, symSize: 0x78 }
  - { offsetInCU: 0x1D39A, offset: 0x238A6, size: 0x8, addend: 0x0, symName: __ZNSt3__122__tree_node_destructorINS_9allocatorINS_11__tree_nodeINS_12__value_typeINS_12basic_stringIcNS_11char_traitsIcEENS1_IcEEEEiEEPvEEEEEclB7v160006EPSB_, symObjAddr: 0x8440, symBinAddr: 0x10000AB80, symSize: 0x98 }
  - { offsetInCU: 0x1D3CE, offset: 0x238DA, size: 0x8, addend: 0x0, symName: __ZNSt3__115__tree_iteratorINS_12__value_typeINS_12basic_stringIcNS_11char_traitsIcEENS_9allocatorIcEEEEiEEPNS_11__tree_nodeIS8_PvEElEC2B7v160006ESC_, symObjAddr: 0x84D8, symBinAddr: 0x10000AC18, symSize: 0x20 }
  - { offsetInCU: 0x1D405, offset: 0x23911, size: 0x8, addend: 0x0, symName: __ZNSt3__14pairINS_15__tree_iteratorINS_12__value_typeINS_12basic_stringIcNS_11char_traitsIcEENS_9allocatorIcEEEEiEEPNS_11__tree_nodeIS9_PvEElEEbEC2B7v160006ISE_RbLSB_0EEEOT_OT0_, symObjAddr: 0x84F8, symBinAddr: 0x10000AC38, symSize: 0x38 }
  - { offsetInCU: 0x1D461, offset: 0x2396D, size: 0x8, addend: 0x0, symName: __ZNSt3__114__map_iteratorINS_15__tree_iteratorINS_12__value_typeINS_12basic_stringIcNS_11char_traitsIcEENS_9allocatorIcEEEEiEEPNS_11__tree_nodeIS9_PvEElEEEC2B7v160006ESE_, symObjAddr: 0x8530, symBinAddr: 0x10000AC70, symSize: 0x20 }
  - { offsetInCU: 0x1D498, offset: 0x239A4, size: 0x8, addend: 0x0, symName: __ZNSt3__120__map_const_iteratorINS_21__tree_const_iteratorINS_12__value_typeINS_12basic_stringIcNS_11char_traitsIcEENS_9allocatorIcEEEEiEEPNS_11__tree_nodeIS9_PvEElEEEC2B7v160006ESE_, symObjAddr: 0x8550, symBinAddr: 0x10000AC90, symSize: 0x20 }
  - { offsetInCU: 0x1D4CF, offset: 0x239DB, size: 0x8, addend: 0x0, symName: __ZNKSt3__121__tree_const_iteratorINS_12__value_typeINS_12basic_stringIcNS_11char_traitsIcEENS_9allocatorIcEEEEiEEPNS_11__tree_nodeIS8_PvEElEptB7v160006Ev, symObjAddr: 0x8570, symBinAddr: 0x10000ACB0, symSize: 0x2C }
  - { offsetInCU: 0x1D4F4, offset: 0x23A00, size: 0x8, addend: 0x0, symName: __ZNSt3__114pointer_traitsIPKNS_12__value_typeINS_12basic_stringIcNS_11char_traitsIcEENS_9allocatorIcEEEEiEEE10pointer_toB7v160006ERS9_, symObjAddr: 0x859C, symBinAddr: 0x10000ACDC, symSize: 0x14 }
  - { offsetInCU: 0x1D517, offset: 0x23A23, size: 0x8, addend: 0x0, symName: __ZNKSt3__16__treeINS_12__value_typeINS_12basic_stringIcNS_11char_traitsIcEENS_9allocatorIcEEEEiEENS_19__map_value_compareIS7_S8_NS_4lessIS7_EELb1EEENS5_IS8_EEE5beginB7v160006Ev, symObjAddr: 0x85B0, symBinAddr: 0x10000ACF0, symSize: 0x34 }
  - { offsetInCU: 0x1D53C, offset: 0x23A48, size: 0x8, addend: 0x0, symName: __ZNKSt3__16__treeINS_12__value_typeINS_12basic_stringIcNS_11char_traitsIcEENS_9allocatorIcEEEEiEENS_19__map_value_compareIS7_S8_NS_4lessIS7_EELb1EEENS5_IS8_EEE12__begin_nodeB7v160006Ev, symObjAddr: 0x85E4, symBinAddr: 0x10000AD24, symSize: 0x14 }
  - { offsetInCU: 0x1D561, offset: 0x23A6D, size: 0x8, addend: 0x0, symName: __ZNSt3__121__tree_const_iteratorINS_12__value_typeINS_12basic_stringIcNS_11char_traitsIcEENS_9allocatorIcEEEEiEEPNS_11__tree_nodeIS8_PvEElEC1B7v160006EPNS_15__tree_end_nodeIPNS_16__tree_node_baseISA_EEEE, symObjAddr: 0x85F8, symBinAddr: 0x10000AD38, symSize: 0x34 }
  - { offsetInCU: 0x1D598, offset: 0x23AA4, size: 0x8, addend: 0x0, symName: __ZNSt3__121__tree_const_iteratorINS_12__value_typeINS_12basic_stringIcNS_11char_traitsIcEENS_9allocatorIcEEEEiEEPNS_11__tree_nodeIS8_PvEElEC2B7v160006EPNS_15__tree_end_nodeIPNS_16__tree_node_baseISA_EEEE, symObjAddr: 0x862C, symBinAddr: 0x10000AD6C, symSize: 0x20 }
  - { offsetInCU: 0x1D5CF, offset: 0x23ADB, size: 0x8, addend: 0x0, symName: __ZNKSt3__16__treeINS_12__value_typeINS_12basic_stringIcNS_11char_traitsIcEENS_9allocatorIcEEEEiEENS_19__map_value_compareIS7_S8_NS_4lessIS7_EELb1EEENS5_IS8_EEE3endB7v160006Ev, symObjAddr: 0x864C, symBinAddr: 0x10000AD8C, symSize: 0x34 }
  - { offsetInCU: 0x1D5F9, offset: 0x23B05, size: 0x8, addend: 0x0, symName: __ZNSt3__119__to_address_helperINS_16reverse_iteratorIP4CellEEvE6__callB7v160006ERKS4_, symObjAddr: 0x8680, symBinAddr: 0x10000ADC0, symSize: 0x38 }
  - { offsetInCU: 0x1D61B, offset: 0x23B27, size: 0x8, addend: 0x0, symName: __ZNKSt3__116reverse_iteratorIP4CellEptB7v160006Ev, symObjAddr: 0x86B8, symBinAddr: 0x10000ADF8, symSize: 0x2C }
  - { offsetInCU: 0x1D640, offset: 0x23B4C, size: 0x8, addend: 0x0, symName: __ZNSt3__128__exception_guard_exceptionsINS_29_AllocatorDestroyRangeReverseINS_9allocatorI4CellEENS_16reverse_iteratorIPS3_EEEEED2B7v160006Ev, symObjAddr: 0x87B4, symBinAddr: 0x10000AEF4, symSize: 0x50 }
  - { offsetInCU: 0x1D668, offset: 0x23B74, size: 0x8, addend: 0x0, symName: __ZNKSt3__129_AllocatorDestroyRangeReverseINS_9allocatorI4CellEENS_16reverse_iteratorIPS2_EEEclB7v160006Ev, symObjAddr: 0x8804, symBinAddr: 0x10000AF44, symSize: 0xB4 }
  - { offsetInCU: 0x1D68E, offset: 0x23B9A, size: 0x8, addend: 0x0, symName: __ZNSt3__116reverse_iteratorINS0_IP4CellEEEC1B7v160006ES3_, symObjAddr: 0x8928, symBinAddr: 0x10000B068, symSize: 0x3C }
  - { offsetInCU: 0x1D6C4, offset: 0x23BD0, size: 0x8, addend: 0x0, symName: __ZNSt3__116reverse_iteratorINS0_IP4CellEEEppB7v160006Ev, symObjAddr: 0x89E8, symBinAddr: 0x10000B128, symSize: 0x30 }
  - { offsetInCU: 0x1D6E9, offset: 0x23BF5, size: 0x8, addend: 0x0, symName: __ZNKSt3__116reverse_iteratorINS0_IP4CellEEE4baseB7v160006Ev, symObjAddr: 0x8A18, symBinAddr: 0x10000B158, symSize: 0x24 }
  - { offsetInCU: 0x1D713, offset: 0x23C1F, size: 0x8, addend: 0x0, symName: __ZNSt3__119__to_address_helperINS_16reverse_iteratorINS1_IP4CellEEEEvE6__callB7v160006ERKS5_, symObjAddr: 0x8A3C, symBinAddr: 0x10000B17C, symSize: 0x38 }
  - { offsetInCU: 0x1D735, offset: 0x23C41, size: 0x8, addend: 0x0, symName: __ZNKSt3__116reverse_iteratorINS0_IP4CellEEEptB7v160006Ev, symObjAddr: 0x8A74, symBinAddr: 0x10000B1B4, symSize: 0x4C }
  - { offsetInCU: 0x1D75A, offset: 0x23C66, size: 0x8, addend: 0x0, symName: __ZNSt3__116reverse_iteratorIP4CellEpLB7v160006El, symObjAddr: 0x8B9C, symBinAddr: 0x10000B2DC, symSize: 0x30 }
  - { offsetInCU: 0x1D78D, offset: 0x23C99, size: 0x8, addend: 0x0, symName: __ZNSt3__116reverse_iteratorIP4CellEmmB7v160006Ev, symObjAddr: 0x8BCC, symBinAddr: 0x10000B30C, symSize: 0x20 }
  - { offsetInCU: 0x1D7B2, offset: 0x23CBE, size: 0x8, addend: 0x0, symName: __ZNSt3__116reverse_iteratorINS0_IP4CellEEEC2B7v160006ES3_, symObjAddr: 0x8BEC, symBinAddr: 0x10000B32C, symSize: 0x2C }
  - { offsetInCU: 0x1D7E8, offset: 0x23CF4, size: 0x8, addend: 0x0, symName: __ZNSt3__116reverse_iteratorIP4CellEC2B7v160006ES2_, symObjAddr: 0x8C18, symBinAddr: 0x10000B358, symSize: 0x28 }
  - { offsetInCU: 0x1D81E, offset: 0x23D2A, size: 0x8, addend: 0x0, symName: __ZNSt3__114__split_bufferI4CellRNS_9allocatorIS1_EEED2Ev, symObjAddr: 0x8C40, symBinAddr: 0x10000B380, symSize: 0x8C }
  - { offsetInCU: 0x1D849, offset: 0x23D55, size: 0x8, addend: 0x0, symName: __ZNSt3__114__split_bufferI4CellRNS_9allocatorIS1_EEE5clearB7v160006Ev, symObjAddr: 0x8CCC, symBinAddr: 0x10000B40C, symSize: 0x28 }
  - { offsetInCU: 0x1D86E, offset: 0x23D7A, size: 0x8, addend: 0x0, symName: __ZNKSt3__114__split_bufferI4CellRNS_9allocatorIS1_EEE8capacityB7v160006Ev, symObjAddr: 0x8CF4, symBinAddr: 0x10000B434, symSize: 0x40 }
  - { offsetInCU: 0x1D893, offset: 0x23D9F, size: 0x8, addend: 0x0, symName: __ZNSt3__114__split_bufferI4CellRNS_9allocatorIS1_EEE17__destruct_at_endB7v160006EPS1_, symObjAddr: 0x8D34, symBinAddr: 0x10000B474, symSize: 0x2C }
  - { offsetInCU: 0x1D8C6, offset: 0x23DD2, size: 0x8, addend: 0x0, symName: __ZNSt3__114__split_bufferI4CellRNS_9allocatorIS1_EEE17__destruct_at_endB7v160006EPS1_NS_17integral_constantIbLb0EEE, symObjAddr: 0x8D60, symBinAddr: 0x10000B4A0, symSize: 0x80 }
  - { offsetInCU: 0x1D905, offset: 0x23E11, size: 0x8, addend: 0x0, symName: __ZNKSt3__114__split_bufferI4CellRNS_9allocatorIS1_EEE9__end_capB7v160006Ev, symObjAddr: 0x8DE0, symBinAddr: 0x10000B520, symSize: 0x28 }
  - { offsetInCU: 0x1D92A, offset: 0x23E36, size: 0x8, addend: 0x0, symName: __ZNKSt3__117__compressed_pairIP4CellRNS_9allocatorIS1_EEE5firstB7v160006Ev, symObjAddr: 0x8E08, symBinAddr: 0x10000B548, symSize: 0x24 }
  - { offsetInCU: 0x1D94F, offset: 0x23E5B, size: 0x8, addend: 0x0, symName: __ZNSt3__16vectorI4CellNS_9allocatorIS1_EEE27__invalidate_iterators_pastB7v160006EPS1_, symObjAddr: 0x8E2C, symBinAddr: 0x10000B56C, symSize: 0x14 }
  - { offsetInCU: 0x1D985, offset: 0x23E91, size: 0x8, addend: 0x0, symName: __ZNKSt3__16vectorI4CellNS_9allocatorIS1_EEE17__annotate_shrinkB7v160006Em, symObjAddr: 0x8E40, symBinAddr: 0x10000B580, symSize: 0xD0 }
  - { offsetInCU: 0x1D9B9, offset: 0x23EC5, size: 0x8, addend: 0x0, symName: __ZNSt3__16vectorINS0_IiNS_9allocatorIiEEEENS1_IS3_EEE11__make_iterB7v160006EPS3_, symObjAddr: 0x8F10, symBinAddr: 0x10000B650, symSize: 0x34 }
  - { offsetInCU: 0x1D9ED, offset: 0x23EF9, size: 0x8, addend: 0x0, symName: __ZNSt3__111__wrap_iterIPNS_6vectorIiNS_9allocatorIiEEEEEC1B7v160006EPKvS5_, symObjAddr: 0x8F44, symBinAddr: 0x10000B684, symSize: 0x3C }
  - { offsetInCU: 0x1DA31, offset: 0x23F3D, size: 0x8, addend: 0x0, symName: __ZNSt3__111__wrap_iterIPNS_6vectorIiNS_9allocatorIiEEEEEC2B7v160006EPKvS5_, symObjAddr: 0x8F80, symBinAddr: 0x10000B6C0, symSize: 0x24 }
  - { offsetInCU: 0x1DA75, offset: 0x23F81, size: 0x8, addend: 0x0, symName: __ZNKSt3__111__wrap_iterIPNS_6vectorIiNS_9allocatorIiEEEEE4baseB7v160006Ev, symObjAddr: 0x8FEC, symBinAddr: 0x10000B72C, symSize: 0x18 }
  - { offsetInCU: 0x1DA9A, offset: 0x23FA6, size: 0x8, addend: 0x0, symName: __ZNSt3__16vectorINS0_IiNS_9allocatorIiEEEENS1_IS3_EEEC2B7v160006Ev, symObjAddr: 0x9004, symBinAddr: 0x10000B744, symSize: 0x58 }
  - { offsetInCU: 0x1DAC2, offset: 0x23FCE, size: 0x8, addend: 0x0, symName: __ZNSt3__117__compressed_pairIPNS_6vectorIiNS_9allocatorIiEEEENS2_IS4_EEEC1B7v160006IDnNS_18__default_init_tagEEEOT_OT0_, symObjAddr: 0x905C, symBinAddr: 0x10000B79C, symSize: 0x3C }
  - { offsetInCU: 0x1DB18, offset: 0x24024, size: 0x8, addend: 0x0, symName: __ZNSt3__117__compressed_pairIPNS_6vectorIiNS_9allocatorIiEEEENS2_IS4_EEEC2B7v160006IDnNS_18__default_init_tagEEEOT_OT0_, symObjAddr: 0x90A8, symBinAddr: 0x10000B7E8, symSize: 0x40 }
  - { offsetInCU: 0x1DB6E, offset: 0x2407A, size: 0x8, addend: 0x0, symName: __ZNSt3__122__compressed_pair_elemIPNS_6vectorIiNS_9allocatorIiEEEELi0ELb0EEC2B7v160006IDnvEEOT_, symObjAddr: 0x90E8, symBinAddr: 0x10000B828, symSize: 0x1C }
  - { offsetInCU: 0x1DBAE, offset: 0x240BA, size: 0x8, addend: 0x0, symName: __ZNSt3__122__compressed_pair_elemINS_9allocatorINS_6vectorIiNS1_IiEEEEEELi1ELb1EEC2B7v160006ENS_18__default_init_tagE, symObjAddr: 0x9104, symBinAddr: 0x10000B844, symSize: 0x2C }
  - { offsetInCU: 0x1DBE0, offset: 0x240EC, size: 0x8, addend: 0x0, symName: __ZNSt3__19allocatorINS_6vectorIiNS0_IiEEEEEC2B7v160006Ev, symObjAddr: 0x9130, symBinAddr: 0x10000B870, symSize: 0x2C }
  - { offsetInCU: 0x1DC08, offset: 0x24114, size: 0x8, addend: 0x0, symName: __ZNSt3__116__non_trivial_ifILb1ENS_9allocatorINS_6vectorIiNS1_IiEEEEEEEC2B7v160006Ev, symObjAddr: 0x915C, symBinAddr: 0x10000B89C, symSize: 0x14 }
  - { offsetInCU: 0x1DC30, offset: 0x2413C, size: 0x8, addend: 0x0, symName: __ZNSt3__16vectorINS0_IiNS_9allocatorIiEEEENS1_IS3_EEE9__end_capB7v160006Ev, symObjAddr: 0x9170, symBinAddr: 0x10000B8B0, symSize: 0x28 }
  - { offsetInCU: 0x1DC55, offset: 0x24161, size: 0x8, addend: 0x0, symName: __ZNSt3__16vectorINS0_IiNS_9allocatorIiEEEENS1_IS3_EEE22__construct_one_at_endB7v160006IJS3_EEEvDpOT_, symObjAddr: 0x9198, symBinAddr: 0x10000B8D8, symSize: 0x90 }
  - { offsetInCU: 0x1DCA4, offset: 0x241B0, size: 0x8, addend: 0x0, symName: __ZNSt3__16vectorINS0_IiNS_9allocatorIiEEEENS1_IS3_EEE21__push_back_slow_pathIS3_EEvOT_, symObjAddr: 0x9228, symBinAddr: 0x10000B968, symSize: 0xD8 }
  - { offsetInCU: 0x1DD03, offset: 0x2420F, size: 0x8, addend: 0x0, symName: __ZNSt3__117__compressed_pairIPNS_6vectorIiNS_9allocatorIiEEEENS2_IS4_EEE5firstB7v160006Ev, symObjAddr: 0x9300, symBinAddr: 0x10000BA40, symSize: 0x24 }
  - { offsetInCU: 0x1DD28, offset: 0x24234, size: 0x8, addend: 0x0, symName: __ZNSt3__122__compressed_pair_elemIPNS_6vectorIiNS_9allocatorIiEEEELi0ELb0EE5__getB7v160006Ev, symObjAddr: 0x9324, symBinAddr: 0x10000BA64, symSize: 0x14 }
  - { offsetInCU: 0x1DD66, offset: 0x24272, size: 0x8, addend: 0x0, symName: __ZNSt3__16vectorINS0_IiNS_9allocatorIiEEEENS1_IS3_EEE21_ConstructTransactionC1B7v160006ERS5_m, symObjAddr: 0x9338, symBinAddr: 0x10000BA78, symSize: 0x3C }
  - { offsetInCU: 0x1DDAC, offset: 0x242B8, size: 0x8, addend: 0x0, symName: __ZNSt3__116allocator_traitsINS_9allocatorINS_6vectorIiNS1_IiEEEEEEE9constructB7v160006IS4_JS4_EvvEEvRS5_PT_DpOT0_, symObjAddr: 0x9374, symBinAddr: 0x10000BAB4, symSize: 0x30 }
  - { offsetInCU: 0x1DE00, offset: 0x2430C, size: 0x8, addend: 0x0, symName: __ZNSt3__16vectorINS0_IiNS_9allocatorIiEEEENS1_IS3_EEE7__allocB7v160006Ev, symObjAddr: 0x93A4, symBinAddr: 0x10000BAE4, symSize: 0x28 }
  - { offsetInCU: 0x1DE25, offset: 0x24331, size: 0x8, addend: 0x0, symName: __ZNSt3__16vectorINS0_IiNS_9allocatorIiEEEENS1_IS3_EEE21_ConstructTransactionD1B7v160006Ev, symObjAddr: 0x93E0, symBinAddr: 0x10000BB20, symSize: 0x2C }
  - { offsetInCU: 0x1DE4D, offset: 0x24359, size: 0x8, addend: 0x0, symName: __ZNSt3__16vectorINS0_IiNS_9allocatorIiEEEENS1_IS3_EEE21_ConstructTransactionC2B7v160006ERS5_m, symObjAddr: 0x940C, symBinAddr: 0x10000BB4C, symSize: 0x4C }
  - { offsetInCU: 0x1DE93, offset: 0x2439F, size: 0x8, addend: 0x0, symName: __ZNSt3__16vectorIiNS_9allocatorIiEEEC1B7v160006EOS3_, symObjAddr: 0x9494, symBinAddr: 0x10000BBD4, symSize: 0x34 }
  - { offsetInCU: 0x1DECD, offset: 0x243D9, size: 0x8, addend: 0x0, symName: __ZNSt3__16vectorIiNS_9allocatorIiEEEC2B7v160006EOS3_, symObjAddr: 0x94C8, symBinAddr: 0x10000BC08, symSize: 0xE0 }
  - { offsetInCU: 0x1DF07, offset: 0x24413, size: 0x8, addend: 0x0, symName: __ZNSt3__16vectorIiNS_9allocatorIiEEE7__allocB7v160006Ev, symObjAddr: 0x95A8, symBinAddr: 0x10000BCE8, symSize: 0x28 }
  - { offsetInCU: 0x1DF31, offset: 0x2443D, size: 0x8, addend: 0x0, symName: __ZNSt3__117__compressed_pairIPiNS_9allocatorIiEEEC1B7v160006IDnS3_EEOT_OT0_, symObjAddr: 0x95D0, symBinAddr: 0x10000BD10, symSize: 0x3C }
  - { offsetInCU: 0x1DF87, offset: 0x24493, size: 0x8, addend: 0x0, symName: __ZNSt3__16vectorIiNS_9allocatorIiEEE9__end_capB7v160006Ev, symObjAddr: 0x9630, symBinAddr: 0x10000BD70, symSize: 0x28 }
  - { offsetInCU: 0x1DFAC, offset: 0x244B8, size: 0x8, addend: 0x0, symName: __ZNSt3__117__compressed_pairIPiNS_9allocatorIiEEE6secondB7v160006Ev, symObjAddr: 0x9658, symBinAddr: 0x10000BD98, symSize: 0x24 }
  - { offsetInCU: 0x1DFD1, offset: 0x244DD, size: 0x8, addend: 0x0, symName: __ZNSt3__122__compressed_pair_elemINS_9allocatorIiEELi1ELb1EE5__getB7v160006Ev, symObjAddr: 0x967C, symBinAddr: 0x10000BDBC, symSize: 0x14 }
  - { offsetInCU: 0x1DFF6, offset: 0x24502, size: 0x8, addend: 0x0, symName: __ZNSt3__117__compressed_pairIPiNS_9allocatorIiEEEC2B7v160006IDnS3_EEOT_OT0_, symObjAddr: 0x9690, symBinAddr: 0x10000BDD0, symSize: 0x44 }
  - { offsetInCU: 0x1E04C, offset: 0x24558, size: 0x8, addend: 0x0, symName: __ZNSt3__122__compressed_pair_elemIPiLi0ELb0EEC2B7v160006IDnvEEOT_, symObjAddr: 0x96D4, symBinAddr: 0x10000BE14, symSize: 0x1C }
  - { offsetInCU: 0x1E08C, offset: 0x24598, size: 0x8, addend: 0x0, symName: __ZNSt3__122__compressed_pair_elemINS_9allocatorIiEELi1ELb1EEC2B7v160006IS2_vEEOT_, symObjAddr: 0x96F0, symBinAddr: 0x10000BE30, symSize: 0x18 }
  - { offsetInCU: 0x1E0CC, offset: 0x245D8, size: 0x8, addend: 0x0, symName: __ZNSt3__117__compressed_pairIPiNS_9allocatorIiEEE5firstB7v160006Ev, symObjAddr: 0x9708, symBinAddr: 0x10000BE48, symSize: 0x24 }
  - { offsetInCU: 0x1E0F1, offset: 0x245FD, size: 0x8, addend: 0x0, symName: __ZNSt3__122__compressed_pair_elemIPiLi0ELb0EE5__getB7v160006Ev, symObjAddr: 0x972C, symBinAddr: 0x10000BE6C, symSize: 0x14 }
  - { offsetInCU: 0x1E116, offset: 0x24622, size: 0x8, addend: 0x0, symName: __ZNSt3__117__compressed_pairIPNS_6vectorIiNS_9allocatorIiEEEENS2_IS4_EEE6secondB7v160006Ev, symObjAddr: 0x9740, symBinAddr: 0x10000BE80, symSize: 0x24 }
  - { offsetInCU: 0x1E13B, offset: 0x24647, size: 0x8, addend: 0x0, symName: __ZNSt3__122__compressed_pair_elemINS_9allocatorINS_6vectorIiNS1_IiEEEEEELi1ELb1EE5__getB7v160006Ev, symObjAddr: 0x9764, symBinAddr: 0x10000BEA4, symSize: 0x14 }
  - { offsetInCU: 0x1E160, offset: 0x2466C, size: 0x8, addend: 0x0, symName: __ZNSt3__16vectorINS0_IiNS_9allocatorIiEEEENS1_IS3_EEE21_ConstructTransactionD2B7v160006Ev, symObjAddr: 0x9778, symBinAddr: 0x10000BEB8, symSize: 0x20 }
  - { offsetInCU: 0x1E188, offset: 0x24694, size: 0x8, addend: 0x0, symName: __ZNKSt3__16vectorINS0_IiNS_9allocatorIiEEEENS1_IS3_EEE11__recommendB7v160006Em, symObjAddr: 0x9798, symBinAddr: 0x10000BED8, symSize: 0xB4 }
  - { offsetInCU: 0x1E1DE, offset: 0x246EA, size: 0x8, addend: 0x0, symName: __ZNKSt3__16vectorINS0_IiNS_9allocatorIiEEEENS1_IS3_EEE4sizeB7v160006Ev, symObjAddr: 0x984C, symBinAddr: 0x10000BF8C, symSize: 0x28 }
  - { offsetInCU: 0x1E203, offset: 0x2470F, size: 0x8, addend: 0x0, symName: __ZNSt3__114__split_bufferINS_6vectorIiNS_9allocatorIiEEEERNS2_IS4_EEEC1EmmS6_, symObjAddr: 0x9874, symBinAddr: 0x10000BFB4, symSize: 0x44 }
  - { offsetInCU: 0x1E258, offset: 0x24764, size: 0x8, addend: 0x0, symName: __ZNSt3__114__split_bufferINS_6vectorIiNS_9allocatorIiEEEERNS2_IS4_EEED1Ev, symObjAddr: 0x99D0, symBinAddr: 0x10000C110, symSize: 0x2C }
  - { offsetInCU: 0x1E283, offset: 0x2478F, size: 0x8, addend: 0x0, symName: __ZNKSt3__16vectorINS0_IiNS_9allocatorIiEEEENS1_IS3_EEE8max_sizeEv, symObjAddr: 0x99FC, symBinAddr: 0x10000C13C, symSize: 0x60 }
  - { offsetInCU: 0x1E2AA, offset: 0x247B6, size: 0x8, addend: 0x0, symName: __ZNKSt3__16vectorINS0_IiNS_9allocatorIiEEEENS1_IS3_EEE20__throw_length_errorB7v160006Ev, symObjAddr: 0x9A5C, symBinAddr: 0x10000C19C, symSize: 0x1C }
  - { offsetInCU: 0x1E2CF, offset: 0x247DB, size: 0x8, addend: 0x0, symName: __ZNKSt3__16vectorINS0_IiNS_9allocatorIiEEEENS1_IS3_EEE8capacityB7v160006Ev, symObjAddr: 0x9A78, symBinAddr: 0x10000C1B8, symSize: 0x40 }
  - { offsetInCU: 0x1E2FE, offset: 0x2480A, size: 0x8, addend: 0x0, symName: __ZNSt3__116allocator_traitsINS_9allocatorINS_6vectorIiNS1_IiEEEEEEE8max_sizeB7v160006IS5_vvEEmRKS5_, symObjAddr: 0x9AB8, symBinAddr: 0x10000C1F8, symSize: 0x28 }
  - { offsetInCU: 0x1E329, offset: 0x24835, size: 0x8, addend: 0x0, symName: __ZNKSt3__16vectorINS0_IiNS_9allocatorIiEEEENS1_IS3_EEE7__allocB7v160006Ev, symObjAddr: 0x9AE0, symBinAddr: 0x10000C220, symSize: 0x28 }
  - { offsetInCU: 0x1E34E, offset: 0x2485A, size: 0x8, addend: 0x0, symName: __ZNKSt3__117__compressed_pairIPNS_6vectorIiNS_9allocatorIiEEEENS2_IS4_EEE6secondB7v160006Ev, symObjAddr: 0x9B08, symBinAddr: 0x10000C248, symSize: 0x24 }
  - { offsetInCU: 0x1E373, offset: 0x2487F, size: 0x8, addend: 0x0, symName: __ZNKSt3__122__compressed_pair_elemINS_9allocatorINS_6vectorIiNS1_IiEEEEEELi1ELb1EE5__getB7v160006Ev, symObjAddr: 0x9B2C, symBinAddr: 0x10000C26C, symSize: 0x14 }
  - { offsetInCU: 0x1E398, offset: 0x248A4, size: 0x8, addend: 0x0, symName: __ZNKSt3__16vectorINS0_IiNS_9allocatorIiEEEENS1_IS3_EEE9__end_capB7v160006Ev, symObjAddr: 0x9B40, symBinAddr: 0x10000C280, symSize: 0x28 }
  - { offsetInCU: 0x1E3BD, offset: 0x248C9, size: 0x8, addend: 0x0, symName: __ZNKSt3__117__compressed_pairIPNS_6vectorIiNS_9allocatorIiEEEENS2_IS4_EEE5firstB7v160006Ev, symObjAddr: 0x9B68, symBinAddr: 0x10000C2A8, symSize: 0x24 }
  - { offsetInCU: 0x1E3E2, offset: 0x248EE, size: 0x8, addend: 0x0, symName: __ZNKSt3__122__compressed_pair_elemIPNS_6vectorIiNS_9allocatorIiEEEELi0ELb0EE5__getB7v160006Ev, symObjAddr: 0x9B8C, symBinAddr: 0x10000C2CC, symSize: 0x14 }
  - { offsetInCU: 0x1E407, offset: 0x24913, size: 0x8, addend: 0x0, symName: __ZNSt3__114__split_bufferINS_6vectorIiNS_9allocatorIiEEEERNS2_IS4_EEEC2EmmS6_, symObjAddr: 0x9BA0, symBinAddr: 0x10000C2E0, symSize: 0xE0 }
  - { offsetInCU: 0x1E47B, offset: 0x24987, size: 0x8, addend: 0x0, symName: __ZNSt3__117__compressed_pairIPNS_6vectorIiNS_9allocatorIiEEEERNS2_IS4_EEEC1B7v160006IDnS7_EEOT_OT0_, symObjAddr: 0x9C80, symBinAddr: 0x10000C3C0, symSize: 0x3C }
  - { offsetInCU: 0x1E4D1, offset: 0x249DD, size: 0x8, addend: 0x0, symName: __ZNSt3__114__split_bufferINS_6vectorIiNS_9allocatorIiEEEERNS2_IS4_EEE7__allocB7v160006Ev, symObjAddr: 0x9CFC, symBinAddr: 0x10000C43C, symSize: 0x28 }
  - { offsetInCU: 0x1E4F6, offset: 0x24A02, size: 0x8, addend: 0x0, symName: __ZNSt3__114__split_bufferINS_6vectorIiNS_9allocatorIiEEEERNS2_IS4_EEE9__end_capB7v160006Ev, symObjAddr: 0x9D24, symBinAddr: 0x10000C464, symSize: 0x28 }
  - { offsetInCU: 0x1E51B, offset: 0x24A27, size: 0x8, addend: 0x0, symName: __ZNSt3__117__compressed_pairIPNS_6vectorIiNS_9allocatorIiEEEERNS2_IS4_EEEC2B7v160006IDnS7_EEOT_OT0_, symObjAddr: 0x9D4C, symBinAddr: 0x10000C48C, symSize: 0x48 }
  - { offsetInCU: 0x1E571, offset: 0x24A7D, size: 0x8, addend: 0x0, symName: __ZNSt3__122__compressed_pair_elemIRNS_9allocatorINS_6vectorIiNS1_IiEEEEEELi1ELb0EEC2B7v160006IS6_vEEOT_, symObjAddr: 0x9D94, symBinAddr: 0x10000C4D4, symSize: 0x20 }
  - { offsetInCU: 0x1E5B1, offset: 0x24ABD, size: 0x8, addend: 0x0, symName: __ZNSt3__19allocatorINS_6vectorIiNS0_IiEEEEE8allocateB7v160006Em, symObjAddr: 0x9DB4, symBinAddr: 0x10000C4F4, symSize: 0x5C }
  - { offsetInCU: 0x1E5E4, offset: 0x24AF0, size: 0x8, addend: 0x0, symName: __ZNSt3__117__compressed_pairIPNS_6vectorIiNS_9allocatorIiEEEERNS2_IS4_EEE6secondB7v160006Ev, symObjAddr: 0x9E10, symBinAddr: 0x10000C550, symSize: 0x28 }
  - { offsetInCU: 0x1E609, offset: 0x24B15, size: 0x8, addend: 0x0, symName: __ZNSt3__122__compressed_pair_elemIRNS_9allocatorINS_6vectorIiNS1_IiEEEEEELi1ELb0EE5__getB7v160006Ev, symObjAddr: 0x9E38, symBinAddr: 0x10000C578, symSize: 0x18 }
  - { offsetInCU: 0x1E62E, offset: 0x24B3A, size: 0x8, addend: 0x0, symName: __ZNSt3__117__compressed_pairIPNS_6vectorIiNS_9allocatorIiEEEERNS2_IS4_EEE5firstB7v160006Ev, symObjAddr: 0x9E50, symBinAddr: 0x10000C590, symSize: 0x24 }
  - { offsetInCU: 0x1E653, offset: 0x24B5F, size: 0x8, addend: 0x0, symName: __ZNKSt3__16vectorINS0_IiNS_9allocatorIiEEEENS1_IS3_EEE17__annotate_deleteB7v160006Ev, symObjAddr: 0x9E74, symBinAddr: 0x10000C5B4, symSize: 0xD4 }
  - { offsetInCU: 0x1E678, offset: 0x24B84, size: 0x8, addend: 0x0, symName: __ZNSt3__116reverse_iteratorIPNS_6vectorIiNS_9allocatorIiEEEEEC1B7v160006ES5_, symObjAddr: 0xA074, symBinAddr: 0x10000C7B4, symSize: 0x34 }
  - { offsetInCU: 0x1E6AE, offset: 0x24BBA, size: 0x8, addend: 0x0, symName: __ZNKSt3__116reverse_iteratorIPNS_6vectorIiNS_9allocatorIiEEEEE4baseB7v160006Ev, symObjAddr: 0xA0A8, symBinAddr: 0x10000C7E8, symSize: 0x18 }
  - { offsetInCU: 0x1E6D3, offset: 0x24BDF, size: 0x8, addend: 0x0, symName: __ZNKSt3__16vectorINS0_IiNS_9allocatorIiEEEENS1_IS3_EEE14__annotate_newB7v160006Em, symObjAddr: 0xA0FC, symBinAddr: 0x10000C83C, symSize: 0xC8 }
  - { offsetInCU: 0x1E707, offset: 0x24C13, size: 0x8, addend: 0x0, symName: __ZNKSt3__16vectorINS0_IiNS_9allocatorIiEEEENS1_IS3_EEE31__annotate_contiguous_containerB7v160006EPKvS7_S7_S7_, symObjAddr: 0xA1D4, symBinAddr: 0x10000C914, symSize: 0x20 }
  - { offsetInCU: 0x1E75C, offset: 0x24C68, size: 0x8, addend: 0x0, symName: __ZNKSt3__16vectorINS0_IiNS_9allocatorIiEEEENS1_IS3_EEE4dataB7v160006Ev, symObjAddr: 0xA1F4, symBinAddr: 0x10000C934, symSize: 0x28 }
  - { offsetInCU: 0x1E781, offset: 0x24C8D, size: 0x8, addend: 0x0, symName: __ZNSt3__129_AllocatorDestroyRangeReverseINS_9allocatorINS_6vectorIiNS1_IiEEEEEENS_16reverse_iteratorIPS4_EEEC1B7v160006ERS5_RS8_SB_, symObjAddr: 0xA268, symBinAddr: 0x10000C9A8, symSize: 0x44 }
  - { offsetInCU: 0x1E7D6, offset: 0x24CE2, size: 0x8, addend: 0x0, symName: __ZNKSt3__116reverse_iteratorIPNS_6vectorIiNS_9allocatorIiEEEEEdeB7v160006Ev, symObjAddr: 0xA318, symBinAddr: 0x10000CA58, symSize: 0x28 }
  - { offsetInCU: 0x1E809, offset: 0x24D15, size: 0x8, addend: 0x0, symName: __ZNSt3__116reverse_iteratorIPNS_6vectorIiNS_9allocatorIiEEEEEppB7v160006Ev, symObjAddr: 0xA340, symBinAddr: 0x10000CA80, symSize: 0x20 }
  - { offsetInCU: 0x1E82E, offset: 0x24D3A, size: 0x8, addend: 0x0, symName: __ZNSt3__128__exception_guard_exceptionsINS_29_AllocatorDestroyRangeReverseINS_9allocatorINS_6vectorIiNS2_IiEEEEEENS_16reverse_iteratorIPS5_EEEEE10__completeB7v160006Ev, symObjAddr: 0xA360, symBinAddr: 0x10000CAA0, symSize: 0x1C }
  - { offsetInCU: 0x1E853, offset: 0x24D5F, size: 0x8, addend: 0x0, symName: __ZNSt3__128__exception_guard_exceptionsINS_29_AllocatorDestroyRangeReverseINS_9allocatorINS_6vectorIiNS2_IiEEEEEENS_16reverse_iteratorIPS5_EEEEED1B7v160006Ev, symObjAddr: 0xA37C, symBinAddr: 0x10000CABC, symSize: 0x2C }
  - { offsetInCU: 0x1E87B, offset: 0x24D87, size: 0x8, addend: 0x0, symName: __ZNSt3__128__exception_guard_exceptionsINS_29_AllocatorDestroyRangeReverseINS_9allocatorINS_6vectorIiNS2_IiEEEEEENS_16reverse_iteratorIPS5_EEEEEC1B7v160006ESA_, symObjAddr: 0xA3A8, symBinAddr: 0x10000CAE8, symSize: 0x34 }
  - { offsetInCU: 0x1E8B2, offset: 0x24DBE, size: 0x8, addend: 0x0, symName: __ZNSt3__128__exception_guard_exceptionsINS_29_AllocatorDestroyRangeReverseINS_9allocatorINS_6vectorIiNS2_IiEEEEEENS_16reverse_iteratorIPS5_EEEEEC2B7v160006ESA_, symObjAddr: 0xA3DC, symBinAddr: 0x10000CB1C, symSize: 0x30 }
  - { offsetInCU: 0x1E8E9, offset: 0x24DF5, size: 0x8, addend: 0x0, symName: __ZNSt3__129_AllocatorDestroyRangeReverseINS_9allocatorINS_6vectorIiNS1_IiEEEEEENS_16reverse_iteratorIPS4_EEEC2B7v160006ERS5_RS8_SB_, symObjAddr: 0xA40C, symBinAddr: 0x10000CB4C, symSize: 0x38 }
  - { offsetInCU: 0x1E943, offset: 0x24E4F, size: 0x8, addend: 0x0, symName: __ZNSt3__119__to_address_helperINS_16reverse_iteratorIPNS_6vectorIiNS_9allocatorIiEEEEEEvE6__callB7v160006ERKS7_, symObjAddr: 0xA444, symBinAddr: 0x10000CB84, symSize: 0x38 }
  - { offsetInCU: 0x1E965, offset: 0x24E71, size: 0x8, addend: 0x0, symName: __ZNKSt3__116reverse_iteratorIPNS_6vectorIiNS_9allocatorIiEEEEEptB7v160006Ev, symObjAddr: 0xA47C, symBinAddr: 0x10000CBBC, symSize: 0x2C }
  - { offsetInCU: 0x1E98A, offset: 0x24E96, size: 0x8, addend: 0x0, symName: __ZNSt3__128__exception_guard_exceptionsINS_29_AllocatorDestroyRangeReverseINS_9allocatorINS_6vectorIiNS2_IiEEEEEENS_16reverse_iteratorIPS5_EEEEED2B7v160006Ev, symObjAddr: 0xA578, symBinAddr: 0x10000CCB8, symSize: 0x50 }
  - { offsetInCU: 0x1E9B2, offset: 0x24EBE, size: 0x8, addend: 0x0, symName: __ZNKSt3__129_AllocatorDestroyRangeReverseINS_9allocatorINS_6vectorIiNS1_IiEEEEEENS_16reverse_iteratorIPS4_EEEclB7v160006Ev, symObjAddr: 0xA5C8, symBinAddr: 0x10000CD08, symSize: 0xB4 }
  - { offsetInCU: 0x1E9D8, offset: 0x24EE4, size: 0x8, addend: 0x0, symName: __ZNSt3__116reverse_iteratorINS0_IPNS_6vectorIiNS_9allocatorIiEEEEEEEC1B7v160006ES6_, symObjAddr: 0xA6EC, symBinAddr: 0x10000CE2C, symSize: 0x3C }
  - { offsetInCU: 0x1EA0E, offset: 0x24F1A, size: 0x8, addend: 0x0, symName: __ZNSt3__116allocator_traitsINS_9allocatorINS_6vectorIiNS1_IiEEEEEEE7destroyB7v160006IS4_vvEEvRS5_PT_, symObjAddr: 0xA788, symBinAddr: 0x10000CEC8, symSize: 0x28 }
  - { offsetInCU: 0x1EA48, offset: 0x24F54, size: 0x8, addend: 0x0, symName: __ZNSt3__116reverse_iteratorINS0_IPNS_6vectorIiNS_9allocatorIiEEEEEEEppB7v160006Ev, symObjAddr: 0xA7D4, symBinAddr: 0x10000CF14, symSize: 0x30 }
  - { offsetInCU: 0x1EA6D, offset: 0x24F79, size: 0x8, addend: 0x0, symName: __ZNKSt3__116reverse_iteratorINS0_IPNS_6vectorIiNS_9allocatorIiEEEEEEE4baseB7v160006Ev, symObjAddr: 0xA804, symBinAddr: 0x10000CF44, symSize: 0x24 }
  - { offsetInCU: 0x1EA97, offset: 0x24FA3, size: 0x8, addend: 0x0, symName: __ZNSt3__119__to_address_helperINS_16reverse_iteratorINS1_IPNS_6vectorIiNS_9allocatorIiEEEEEEEEvE6__callB7v160006ERKS8_, symObjAddr: 0xA870, symBinAddr: 0x10000CFB0, symSize: 0x38 }
  - { offsetInCU: 0x1EAB9, offset: 0x24FC5, size: 0x8, addend: 0x0, symName: __ZNKSt3__116reverse_iteratorINS0_IPNS_6vectorIiNS_9allocatorIiEEEEEEEptB7v160006Ev, symObjAddr: 0xA8A8, symBinAddr: 0x10000CFE8, symSize: 0x4C }
  - { offsetInCU: 0x1EADE, offset: 0x24FEA, size: 0x8, addend: 0x0, symName: __ZNSt3__116reverse_iteratorIPNS_6vectorIiNS_9allocatorIiEEEEEpLB7v160006El, symObjAddr: 0xA9D0, symBinAddr: 0x10000D110, symSize: 0x30 }
  - { offsetInCU: 0x1EB11, offset: 0x2501D, size: 0x8, addend: 0x0, symName: __ZNSt3__116reverse_iteratorIPNS_6vectorIiNS_9allocatorIiEEEEEmmB7v160006Ev, symObjAddr: 0xAA00, symBinAddr: 0x10000D140, symSize: 0x20 }
  - { offsetInCU: 0x1EB36, offset: 0x25042, size: 0x8, addend: 0x0, symName: __ZNSt3__116reverse_iteratorINS0_IPNS_6vectorIiNS_9allocatorIiEEEEEEEC2B7v160006ES6_, symObjAddr: 0xAA20, symBinAddr: 0x10000D160, symSize: 0x2C }
  - { offsetInCU: 0x1EB6C, offset: 0x25078, size: 0x8, addend: 0x0, symName: __ZNSt3__116reverse_iteratorIPNS_6vectorIiNS_9allocatorIiEEEEEC2B7v160006ES5_, symObjAddr: 0xAA4C, symBinAddr: 0x10000D18C, symSize: 0x28 }
  - { offsetInCU: 0x1EBA2, offset: 0x250AE, size: 0x8, addend: 0x0, symName: __ZNSt3__114__split_bufferINS_6vectorIiNS_9allocatorIiEEEERNS2_IS4_EEED2Ev, symObjAddr: 0xAA74, symBinAddr: 0x10000D1B4, symSize: 0x8C }
  - { offsetInCU: 0x1EBCD, offset: 0x250D9, size: 0x8, addend: 0x0, symName: __ZNSt3__114__split_bufferINS_6vectorIiNS_9allocatorIiEEEERNS2_IS4_EEE5clearB7v160006Ev, symObjAddr: 0xAB00, symBinAddr: 0x10000D240, symSize: 0x28 }
  - { offsetInCU: 0x1EBF2, offset: 0x250FE, size: 0x8, addend: 0x0, symName: __ZNSt3__116allocator_traitsINS_9allocatorINS_6vectorIiNS1_IiEEEEEEE10deallocateB7v160006ERS5_PS4_m, symObjAddr: 0xAB28, symBinAddr: 0x10000D268, symSize: 0x34 }
  - { offsetInCU: 0x1EC33, offset: 0x2513F, size: 0x8, addend: 0x0, symName: __ZNKSt3__114__split_bufferINS_6vectorIiNS_9allocatorIiEEEERNS2_IS4_EEE8capacityB7v160006Ev, symObjAddr: 0xAB5C, symBinAddr: 0x10000D29C, symSize: 0x40 }
  - { offsetInCU: 0x1EC58, offset: 0x25164, size: 0x8, addend: 0x0, symName: __ZNSt3__114__split_bufferINS_6vectorIiNS_9allocatorIiEEEERNS2_IS4_EEE17__destruct_at_endB7v160006EPS4_, symObjAddr: 0xAB9C, symBinAddr: 0x10000D2DC, symSize: 0x2C }
  - { offsetInCU: 0x1EC8B, offset: 0x25197, size: 0x8, addend: 0x0, symName: __ZNSt3__114__split_bufferINS_6vectorIiNS_9allocatorIiEEEERNS2_IS4_EEE17__destruct_at_endB7v160006EPS4_NS_17integral_constantIbLb0EEE, symObjAddr: 0xABC8, symBinAddr: 0x10000D308, symSize: 0x80 }
  - { offsetInCU: 0x1ECCA, offset: 0x251D6, size: 0x8, addend: 0x0, symName: __ZNSt3__19allocatorINS_6vectorIiNS0_IiEEEEE10deallocateB7v160006EPS3_m, symObjAddr: 0xAC48, symBinAddr: 0x10000D388, symSize: 0x44 }
  - { offsetInCU: 0x1ED0B, offset: 0x25217, size: 0x8, addend: 0x0, symName: __ZNKSt3__114__split_bufferINS_6vectorIiNS_9allocatorIiEEEERNS2_IS4_EEE9__end_capB7v160006Ev, symObjAddr: 0xAC8C, symBinAddr: 0x10000D3CC, symSize: 0x28 }
  - { offsetInCU: 0x1ED30, offset: 0x2523C, size: 0x8, addend: 0x0, symName: __ZNKSt3__117__compressed_pairIPNS_6vectorIiNS_9allocatorIiEEEERNS2_IS4_EEE5firstB7v160006Ev, symObjAddr: 0xACB4, symBinAddr: 0x10000D3F4, symSize: 0x24 }
  - { offsetInCU: 0x1ED55, offset: 0x25261, size: 0x8, addend: 0x0, symName: __ZNSt3__16vectorIiNS_9allocatorIiEEEC2B7v160006ESt16initializer_listIiE, symObjAddr: 0xACD8, symBinAddr: 0x10000D418, symSize: 0x128 }
  - { offsetInCU: 0x1EDA6, offset: 0x252B2, size: 0x8, addend: 0x0, symName: __ZNSt3__117__compressed_pairIPiNS_9allocatorIiEEEC1B7v160006IDnNS_18__default_init_tagEEEOT_OT0_, symObjAddr: 0xAE00, symBinAddr: 0x10000D540, symSize: 0x3C }
  - { offsetInCU: 0x1EDFC, offset: 0x25308, size: 0x8, addend: 0x0, symName: __ZNSt3__16vectorIiNS_9allocatorIiEEE16__destroy_vectorC1ERS3_, symObjAddr: 0xAE7C, symBinAddr: 0x10000D5BC, symSize: 0x34 }
  - { offsetInCU: 0x1EE33, offset: 0x2533F, size: 0x8, addend: 0x0, symName: __ZNKSt16initializer_listIiE4sizeB7v160006Ev, symObjAddr: 0xAEB0, symBinAddr: 0x10000D5F0, symSize: 0x18 }
  - { offsetInCU: 0x1EE58, offset: 0x25364, size: 0x8, addend: 0x0, symName: __ZNSt3__16vectorIiNS_9allocatorIiEEE11__vallocateB7v160006Em, symObjAddr: 0xAEC8, symBinAddr: 0x10000D608, symSize: 0xAC }
  - { offsetInCU: 0x1EE9C, offset: 0x253A8, size: 0x8, addend: 0x0, symName: __ZNSt3__16vectorIiNS_9allocatorIiEEE18__construct_at_endIPKiLi0EEEvT_S7_m, symObjAddr: 0xAF74, symBinAddr: 0x10000D6B4, symSize: 0x8C }
  - { offsetInCU: 0x1EF10, offset: 0x2541C, size: 0x8, addend: 0x0, symName: __ZNKSt16initializer_listIiE5beginB7v160006Ev, symObjAddr: 0xB000, symBinAddr: 0x10000D740, symSize: 0x18 }
  - { offsetInCU: 0x1EF35, offset: 0x25441, size: 0x8, addend: 0x0, symName: __ZNKSt16initializer_listIiE3endB7v160006Ev, symObjAddr: 0xB018, symBinAddr: 0x10000D758, symSize: 0x20 }
  - { offsetInCU: 0x1EF5A, offset: 0x25466, size: 0x8, addend: 0x0, symName: __ZNSt3__128__exception_guard_exceptionsINS_6vectorIiNS_9allocatorIiEEE16__destroy_vectorEE10__completeB7v160006Ev, symObjAddr: 0xB038, symBinAddr: 0x10000D778, symSize: 0x1C }
  - { offsetInCU: 0x1EF7F, offset: 0x2548B, size: 0x8, addend: 0x0, symName: __ZNSt3__128__exception_guard_exceptionsINS_6vectorIiNS_9allocatorIiEEE16__destroy_vectorEED1B7v160006Ev, symObjAddr: 0xB054, symBinAddr: 0x10000D794, symSize: 0x2C }
  - { offsetInCU: 0x1EFA7, offset: 0x254B3, size: 0x8, addend: 0x0, symName: __ZNSt3__117__compressed_pairIPiNS_9allocatorIiEEEC2B7v160006IDnNS_18__default_init_tagEEEOT_OT0_, symObjAddr: 0xB080, symBinAddr: 0x10000D7C0, symSize: 0x40 }
  - { offsetInCU: 0x1EFFD, offset: 0x25509, size: 0x8, addend: 0x0, symName: __ZNSt3__122__compressed_pair_elemINS_9allocatorIiEELi1ELb1EEC2B7v160006ENS_18__default_init_tagE, symObjAddr: 0xB0C0, symBinAddr: 0x10000D800, symSize: 0x2C }
  - { offsetInCU: 0x1F02F, offset: 0x2553B, size: 0x8, addend: 0x0, symName: __ZNSt3__19allocatorIiEC2B7v160006Ev, symObjAddr: 0xB0EC, symBinAddr: 0x10000D82C, symSize: 0x2C }
  - { offsetInCU: 0x1F057, offset: 0x25563, size: 0x8, addend: 0x0, symName: __ZNSt3__116__non_trivial_ifILb1ENS_9allocatorIiEEEC2B7v160006Ev, symObjAddr: 0xB118, symBinAddr: 0x10000D858, symSize: 0x14 }
  - { offsetInCU: 0x1F07F, offset: 0x2558B, size: 0x8, addend: 0x0, symName: __ZNSt3__128__exception_guard_exceptionsINS_6vectorIiNS_9allocatorIiEEE16__destroy_vectorEEC1B7v160006ES5_, symObjAddr: 0xB12C, symBinAddr: 0x10000D86C, symSize: 0x34 }
  - { offsetInCU: 0x1F0B5, offset: 0x255C1, size: 0x8, addend: 0x0, symName: __ZNSt3__128__exception_guard_exceptionsINS_6vectorIiNS_9allocatorIiEEE16__destroy_vectorEEC2B7v160006ES5_, symObjAddr: 0xB160, symBinAddr: 0x10000D8A0, symSize: 0x24 }
  - { offsetInCU: 0x1F0EB, offset: 0x255F7, size: 0x8, addend: 0x0, symName: __ZNSt3__16vectorIiNS_9allocatorIiEEE16__destroy_vectorC2ERS3_, symObjAddr: 0xB184, symBinAddr: 0x10000D8C4, symSize: 0x20 }
  - { offsetInCU: 0x1F122, offset: 0x2562E, size: 0x8, addend: 0x0, symName: __ZNKSt3__16vectorIiNS_9allocatorIiEEE8max_sizeEv, symObjAddr: 0xB1A4, symBinAddr: 0x10000D8E4, symSize: 0x60 }
  - { offsetInCU: 0x1F149, offset: 0x25655, size: 0x8, addend: 0x0, symName: __ZNKSt3__16vectorIiNS_9allocatorIiEEE20__throw_length_errorB7v160006Ev, symObjAddr: 0xB204, symBinAddr: 0x10000D944, symSize: 0x1C }
  - { offsetInCU: 0x1F16E, offset: 0x2567A, size: 0x8, addend: 0x0, symName: __ZNKSt3__16vectorIiNS_9allocatorIiEEE14__annotate_newB7v160006Em, symObjAddr: 0xB260, symBinAddr: 0x10000D9A0, symSize: 0xAC }
  - { offsetInCU: 0x1F1AC, offset: 0x256B8, size: 0x8, addend: 0x0, symName: __ZNSt3__116allocator_traitsINS_9allocatorIiEEE8max_sizeB7v160006IS2_vvEEmRKS2_, symObjAddr: 0xB30C, symBinAddr: 0x10000DA4C, symSize: 0x28 }
  - { offsetInCU: 0x1F1D7, offset: 0x256E3, size: 0x8, addend: 0x0, symName: __ZNKSt3__16vectorIiNS_9allocatorIiEEE7__allocB7v160006Ev, symObjAddr: 0xB334, symBinAddr: 0x10000DA74, symSize: 0x28 }
  - { offsetInCU: 0x1F1FC, offset: 0x25708, size: 0x8, addend: 0x0, symName: __ZNKSt3__117__compressed_pairIPiNS_9allocatorIiEEE6secondB7v160006Ev, symObjAddr: 0xB35C, symBinAddr: 0x10000DA9C, symSize: 0x24 }
  - { offsetInCU: 0x1F221, offset: 0x2572D, size: 0x8, addend: 0x0, symName: __ZNKSt3__122__compressed_pair_elemINS_9allocatorIiEELi1ELb1EE5__getB7v160006Ev, symObjAddr: 0xB380, symBinAddr: 0x10000DAC0, symSize: 0x14 }
  - { offsetInCU: 0x1F246, offset: 0x25752, size: 0x8, addend: 0x0, symName: __ZNSt3__19allocatorIiE8allocateB7v160006Em, symObjAddr: 0xB394, symBinAddr: 0x10000DAD4, symSize: 0x58 }
  - { offsetInCU: 0x1F279, offset: 0x25785, size: 0x8, addend: 0x0, symName: __ZNKSt3__16vectorIiNS_9allocatorIiEEE31__annotate_contiguous_containerB7v160006EPKvS5_S5_S5_, symObjAddr: 0xB3EC, symBinAddr: 0x10000DB2C, symSize: 0x20 }
  - { offsetInCU: 0x1F2CE, offset: 0x257DA, size: 0x8, addend: 0x0, symName: __ZNKSt3__16vectorIiNS_9allocatorIiEEE4dataB7v160006Ev, symObjAddr: 0xB40C, symBinAddr: 0x10000DB4C, symSize: 0x28 }
  - { offsetInCU: 0x1F2F3, offset: 0x257FF, size: 0x8, addend: 0x0, symName: __ZNKSt3__16vectorIiNS_9allocatorIiEEE8capacityB7v160006Ev, symObjAddr: 0xB434, symBinAddr: 0x10000DB74, symSize: 0x40 }
  - { offsetInCU: 0x1F318, offset: 0x25824, size: 0x8, addend: 0x0, symName: __ZNKSt3__16vectorIiNS_9allocatorIiEEE9__end_capB7v160006Ev, symObjAddr: 0xB488, symBinAddr: 0x10000DBC8, symSize: 0x28 }
  - { offsetInCU: 0x1F33D, offset: 0x25849, size: 0x8, addend: 0x0, symName: __ZNKSt3__117__compressed_pairIPiNS_9allocatorIiEEE5firstB7v160006Ev, symObjAddr: 0xB4B0, symBinAddr: 0x10000DBF0, symSize: 0x24 }
  - { offsetInCU: 0x1F362, offset: 0x2586E, size: 0x8, addend: 0x0, symName: __ZNKSt3__122__compressed_pair_elemIPiLi0ELb0EE5__getB7v160006Ev, symObjAddr: 0xB4D4, symBinAddr: 0x10000DC14, symSize: 0x14 }
  - { offsetInCU: 0x1F3A0, offset: 0x258AC, size: 0x8, addend: 0x0, symName: __ZNSt3__16vectorIiNS_9allocatorIiEEE21_ConstructTransactionC1B7v160006ERS3_m, symObjAddr: 0xB4E8, symBinAddr: 0x10000DC28, symSize: 0x3C }
  - { offsetInCU: 0x1F3E6, offset: 0x258F2, size: 0x8, addend: 0x0, symName: __ZNSt3__16vectorIiNS_9allocatorIiEEE21_ConstructTransactionD1B7v160006Ev, symObjAddr: 0xB55C, symBinAddr: 0x10000DC9C, symSize: 0x2C }
  - { offsetInCU: 0x1F40E, offset: 0x2591A, size: 0x8, addend: 0x0, symName: __ZNSt3__16vectorIiNS_9allocatorIiEEE21_ConstructTransactionC2B7v160006ERS3_m, symObjAddr: 0xB588, symBinAddr: 0x10000DCC8, symSize: 0x44 }
  - { offsetInCU: 0x1F477, offset: 0x25983, size: 0x8, addend: 0x0, symName: __ZNKSt3__114__copy_trivialclB7v160006IKiiLi0EEENS_4pairIPT_PT0_EES5_S5_S7_, symObjAddr: 0xB784, symBinAddr: 0x10000DEC4, symSize: 0x48 }
  - { offsetInCU: 0x1F4F8, offset: 0x25A04, size: 0x8, addend: 0x0, symName: __ZNSt3__119__unwrap_range_implIPKiS2_E8__unwrapB7v160006ES2_S2_, symObjAddr: 0xB890, symBinAddr: 0x10000DFD0, symSize: 0x58 }
  - { offsetInCU: 0x1F52D, offset: 0x25A39, size: 0x8, addend: 0x0, symName: __ZNSt3__14pairIPKiS2_EC1B7v160006IS2_S2_LPv0EEEOT_OT0_, symObjAddr: 0xB90C, symBinAddr: 0x10000E04C, symSize: 0x3C }
  - { offsetInCU: 0x1F589, offset: 0x25A95, size: 0x8, addend: 0x0, symName: __ZNSt3__118__unwrap_iter_implIPKiLb1EE8__unwrapB7v160006ES2_, symObjAddr: 0xB948, symBinAddr: 0x10000E088, symSize: 0x24 }
  - { offsetInCU: 0x1F5AB, offset: 0x25AB7, size: 0x8, addend: 0x0, symName: __ZNSt3__14pairIPKiS2_EC2B7v160006IS2_S2_LPv0EEEOT_OT0_, symObjAddr: 0xB980, symBinAddr: 0x10000E0C0, symSize: 0x34 }
  - { offsetInCU: 0x1F611, offset: 0x25B1D, size: 0x8, addend: 0x0, symName: __ZNSt3__14pairIPKiPiEC1B7v160006IRS2_S3_LPv0EEEOT_OT0_, symObjAddr: 0xBA70, symBinAddr: 0x10000E1B0, symSize: 0x3C }
  - { offsetInCU: 0x1F66D, offset: 0x25B79, size: 0x8, addend: 0x0, symName: __ZNSt3__14pairIPKiPiEC2B7v160006IRS2_S3_LPv0EEEOT_OT0_, symObjAddr: 0xBAAC, symBinAddr: 0x10000E1EC, symSize: 0x34 }
  - { offsetInCU: 0x1F6C9, offset: 0x25BD5, size: 0x8, addend: 0x0, symName: __ZNSt3__118__unwrap_iter_implIPiLb1EE8__unwrapB7v160006ES1_, symObjAddr: 0xBAE0, symBinAddr: 0x10000E220, symSize: 0x24 }
  - { offsetInCU: 0x1F6EB, offset: 0x25BF7, size: 0x8, addend: 0x0, symName: __ZNSt3__14pairIPKiPiEC1B7v160006IS2_S3_LPv0EEEOT_OT0_, symObjAddr: 0xBB04, symBinAddr: 0x10000E244, symSize: 0x3C }
  - { offsetInCU: 0x1F747, offset: 0x25C53, size: 0x8, addend: 0x0, symName: __ZNSt3__14pairIPKiPiEC2B7v160006IS2_S3_LPv0EEEOT_OT0_, symObjAddr: 0xBB40, symBinAddr: 0x10000E280, symSize: 0x34 }
  - { offsetInCU: 0x1F7A3, offset: 0x25CAF, size: 0x8, addend: 0x0, symName: __ZNSt3__119__unwrap_range_implIPKiS2_E8__rewrapB7v160006ES2_S2_, symObjAddr: 0xBB74, symBinAddr: 0x10000E2B4, symSize: 0x2C }
  - { offsetInCU: 0x1F7D3, offset: 0x25CDF, size: 0x8, addend: 0x0, symName: __ZNSt3__118__unwrap_iter_implIPKiLb1EE8__rewrapB7v160006ES2_S2_, symObjAddr: 0xBBDC, symBinAddr: 0x10000E31C, symSize: 0x50 }
  - { offsetInCU: 0x1F803, offset: 0x25D0F, size: 0x8, addend: 0x0, symName: __ZNSt3__118__unwrap_iter_implIPiLb1EE8__rewrapB7v160006ES1_S1_, symObjAddr: 0xBC2C, symBinAddr: 0x10000E36C, symSize: 0x50 }
  - { offsetInCU: 0x1F833, offset: 0x25D3F, size: 0x8, addend: 0x0, symName: __ZNSt3__16vectorIiNS_9allocatorIiEEE21_ConstructTransactionD2B7v160006Ev, symObjAddr: 0xBC7C, symBinAddr: 0x10000E3BC, symSize: 0x20 }
  - { offsetInCU: 0x1F85B, offset: 0x25D67, size: 0x8, addend: 0x0, symName: __ZNSt3__128__exception_guard_exceptionsINS_6vectorIiNS_9allocatorIiEEE16__destroy_vectorEED2B7v160006Ev, symObjAddr: 0xBC9C, symBinAddr: 0x10000E3DC, symSize: 0x50 }
  - { offsetInCU: 0x1F883, offset: 0x25D8F, size: 0x8, addend: 0x0, symName: __ZNSt3__16vectorIiNS_9allocatorIiEEE16__destroy_vectorclB7v160006Ev, symObjAddr: 0xBCEC, symBinAddr: 0x10000E42C, symSize: 0x9C }
  - { offsetInCU: 0x1F8A8, offset: 0x25DB4, size: 0x8, addend: 0x0, symName: __ZNKSt3__16vectorIiNS_9allocatorIiEEE17__annotate_deleteB7v160006Ev, symObjAddr: 0xBD88, symBinAddr: 0x10000E4C8, symSize: 0xB8 }
  - { offsetInCU: 0x1F8CD, offset: 0x25DD9, size: 0x8, addend: 0x0, symName: __ZNSt3__16vectorIiNS_9allocatorIiEEE7__clearB7v160006Ev, symObjAddr: 0xBE50, symBinAddr: 0x10000E590, symSize: 0x28 }
  - { offsetInCU: 0x1F8F2, offset: 0x25DFE, size: 0x8, addend: 0x0, symName: __ZNSt3__116allocator_traitsINS_9allocatorIiEEE10deallocateB7v160006ERS2_Pim, symObjAddr: 0xBE78, symBinAddr: 0x10000E5B8, symSize: 0x34 }
  - { offsetInCU: 0x1F933, offset: 0x25E3F, size: 0x8, addend: 0x0, symName: __ZNKSt3__16vectorIiNS_9allocatorIiEEE4sizeB7v160006Ev, symObjAddr: 0xBEAC, symBinAddr: 0x10000E5EC, symSize: 0x28 }
  - { offsetInCU: 0x1F958, offset: 0x25E64, size: 0x8, addend: 0x0, symName: __ZNSt3__16vectorIiNS_9allocatorIiEEE22__base_destruct_at_endB7v160006EPi, symObjAddr: 0xBED4, symBinAddr: 0x10000E614, symSize: 0x8C }
  - { offsetInCU: 0x1F99C, offset: 0x25EA8, size: 0x8, addend: 0x0, symName: __ZNSt3__116allocator_traitsINS_9allocatorIiEEE7destroyB7v160006IivvEEvRS2_PT_, symObjAddr: 0xBF60, symBinAddr: 0x10000E6A0, symSize: 0x28 }
  - { offsetInCU: 0x1F9D6, offset: 0x25EE2, size: 0x8, addend: 0x0, symName: __ZNSt3__19allocatorIiE10deallocateB7v160006EPim, symObjAddr: 0xBFBC, symBinAddr: 0x10000E6FC, symSize: 0x40 }
  - { offsetInCU: 0x1FA17, offset: 0x25F23, size: 0x8, addend: 0x0, symName: __ZNSt3__16vectorIiNS_9allocatorIiEEED2B7v160006Ev, symObjAddr: 0xBFFC, symBinAddr: 0x10000E73C, symSize: 0x44 }
  - { offsetInCU: 0x1FA3F, offset: 0x25F4B, size: 0x8, addend: 0x0, symName: __ZNSt3__16vectorINS0_IiNS_9allocatorIiEEEENS1_IS3_EEED2B7v160006Ev, symObjAddr: 0xC040, symBinAddr: 0x10000E780, symSize: 0x44 }
  - { offsetInCU: 0x1FA67, offset: 0x25F73, size: 0x8, addend: 0x0, symName: __ZNSt3__16vectorINS0_IiNS_9allocatorIiEEEENS1_IS3_EEE16__destroy_vectorC1ERS5_, symObjAddr: 0xC084, symBinAddr: 0x10000E7C4, symSize: 0x34 }
  - { offsetInCU: 0x1FA9E, offset: 0x25FAA, size: 0x8, addend: 0x0, symName: __ZNSt3__16vectorINS0_IiNS_9allocatorIiEEEENS1_IS3_EEE16__destroy_vectorclB7v160006Ev, symObjAddr: 0xC0B8, symBinAddr: 0x10000E7F8, symSize: 0x9C }
  - { offsetInCU: 0x1FAC3, offset: 0x25FCF, size: 0x8, addend: 0x0, symName: __ZNSt3__16vectorINS0_IiNS_9allocatorIiEEEENS1_IS3_EEE16__destroy_vectorC2ERS5_, symObjAddr: 0xC154, symBinAddr: 0x10000E894, symSize: 0x20 }
  - { offsetInCU: 0x1FAFA, offset: 0x26006, size: 0x8, addend: 0x0, symName: __ZNSt3__16vectorINS0_IiNS_9allocatorIiEEEENS1_IS3_EEE7__clearB7v160006Ev, symObjAddr: 0xC184, symBinAddr: 0x10000E8C4, symSize: 0x28 }
  - { offsetInCU: 0x1FB1F, offset: 0x2602B, size: 0x8, addend: 0x0, symName: __ZNSt3__16vectorINS0_IiNS_9allocatorIiEEEENS1_IS3_EEE22__base_destruct_at_endB7v160006EPS3_, symObjAddr: 0xC1AC, symBinAddr: 0x10000E8EC, symSize: 0x8C }
  - { offsetInCU: 0x1FB63, offset: 0x2606F, size: 0x8, addend: 0x0, symName: __ZNSt3__16vectorIiNS_9allocatorIiEEEC2ERKS3_, symObjAddr: 0xC238, symBinAddr: 0x10000E978, symSize: 0x110 }
  - { offsetInCU: 0x1FBC4, offset: 0x260D0, size: 0x8, addend: 0x0, symName: __ZNSt3__116allocator_traitsINS_9allocatorIiEEE37select_on_container_copy_constructionB7v160006IS2_vvEES2_RKS2_, symObjAddr: 0xC348, symBinAddr: 0x10000EA88, symSize: 0x10 }
  - { offsetInCU: 0x1FBF3, offset: 0x260FF, size: 0x8, addend: 0x0, symName: __ZNSt3__16vectorIiNS_9allocatorIiEEE18__construct_at_endIPiLi0EEEvT_S6_m, symObjAddr: 0xC358, symBinAddr: 0x10000EA98, symSize: 0x8C }
  - { offsetInCU: 0x1FC67, offset: 0x26173, size: 0x8, addend: 0x0, symName: __ZNSt3__129_AllocatorDestroyRangeReverseINS_9allocatorIiEEPiEC1B7v160006ERS2_RS3_S6_, symObjAddr: 0xC524, symBinAddr: 0x10000EC64, symSize: 0x44 }
  - { offsetInCU: 0x1FCBC, offset: 0x261C8, size: 0x8, addend: 0x0, symName: __ZNSt3__116allocator_traitsINS_9allocatorIiEEE9constructB7v160006IiJRiEvvEEvRS2_PT_DpOT0_, symObjAddr: 0xC568, symBinAddr: 0x10000ECA8, symSize: 0x30 }
  - { offsetInCU: 0x1FD10, offset: 0x2621C, size: 0x8, addend: 0x0, symName: __ZNSt3__128__exception_guard_exceptionsINS_29_AllocatorDestroyRangeReverseINS_9allocatorIiEEPiEEE10__completeB7v160006Ev, symObjAddr: 0xC598, symBinAddr: 0x10000ECD8, symSize: 0x1C }
  - { offsetInCU: 0x1FD35, offset: 0x26241, size: 0x8, addend: 0x0, symName: __ZNSt3__128__exception_guard_exceptionsINS_29_AllocatorDestroyRangeReverseINS_9allocatorIiEEPiEEED1B7v160006Ev, symObjAddr: 0xC5B4, symBinAddr: 0x10000ECF4, symSize: 0x2C }
  - { offsetInCU: 0x1FD5D, offset: 0x26269, size: 0x8, addend: 0x0, symName: __ZNSt3__128__exception_guard_exceptionsINS_29_AllocatorDestroyRangeReverseINS_9allocatorIiEEPiEEEC1B7v160006ES5_, symObjAddr: 0xC5E0, symBinAddr: 0x10000ED20, symSize: 0x34 }
  - { offsetInCU: 0x1FD94, offset: 0x262A0, size: 0x8, addend: 0x0, symName: __ZNSt3__128__exception_guard_exceptionsINS_29_AllocatorDestroyRangeReverseINS_9allocatorIiEEPiEEEC2B7v160006ES5_, symObjAddr: 0xC614, symBinAddr: 0x10000ED54, symSize: 0x30 }
  - { offsetInCU: 0x1FDCB, offset: 0x262D7, size: 0x8, addend: 0x0, symName: __ZNSt3__129_AllocatorDestroyRangeReverseINS_9allocatorIiEEPiEC2B7v160006ERS2_RS3_S6_, symObjAddr: 0xC644, symBinAddr: 0x10000ED84, symSize: 0x38 }
  - { offsetInCU: 0x1FE20, offset: 0x2632C, size: 0x8, addend: 0x0, symName: __ZNSt3__128__exception_guard_exceptionsINS_29_AllocatorDestroyRangeReverseINS_9allocatorIiEEPiEEED2B7v160006Ev, symObjAddr: 0xC6A8, symBinAddr: 0x10000EDE8, symSize: 0x50 }
  - { offsetInCU: 0x1FE48, offset: 0x26354, size: 0x8, addend: 0x0, symName: __ZNKSt3__129_AllocatorDestroyRangeReverseINS_9allocatorIiEEPiEclB7v160006Ev, symObjAddr: 0xC6F8, symBinAddr: 0x10000EE38, symSize: 0x68 }
  - { offsetInCU: 0x1FE6D, offset: 0x26379, size: 0x8, addend: 0x0, symName: __ZNSt3__116reverse_iteratorIPiEC1B7v160006ES1_, symObjAddr: 0xC7D0, symBinAddr: 0x10000EF10, symSize: 0x34 }
  - { offsetInCU: 0x1FEA3, offset: 0x263AF, size: 0x8, addend: 0x0, symName: __ZNSt3__116reverse_iteratorIPiEppB7v160006Ev, symObjAddr: 0xC870, symBinAddr: 0x10000EFB0, symSize: 0x20 }
  - { offsetInCU: 0x1FEC8, offset: 0x263D4, size: 0x8, addend: 0x0, symName: __ZNKSt3__116reverse_iteratorIPiE4baseB7v160006Ev, symObjAddr: 0xC890, symBinAddr: 0x10000EFD0, symSize: 0x18 }
  - { offsetInCU: 0x1FEF2, offset: 0x263FE, size: 0x8, addend: 0x0, symName: __ZNSt3__119__to_address_helperINS_16reverse_iteratorIPiEEvE6__callB7v160006ERKS3_, symObjAddr: 0xC8A8, symBinAddr: 0x10000EFE8, symSize: 0x38 }
  - { offsetInCU: 0x1FF14, offset: 0x26420, size: 0x8, addend: 0x0, symName: __ZNKSt3__116reverse_iteratorIPiEptB7v160006Ev, symObjAddr: 0xC8E0, symBinAddr: 0x10000F020, symSize: 0x2C }
  - { offsetInCU: 0x1FF39, offset: 0x26445, size: 0x8, addend: 0x0, symName: __ZNSt3__116reverse_iteratorIPiEC2B7v160006ES1_, symObjAddr: 0xC9D4, symBinAddr: 0x10000F114, symSize: 0x28 }
  - { offsetInCU: 0x1FF8D, offset: 0x26499, size: 0x8, addend: 0x0, symName: __ZNKSt3__113basic_ostreamIcNS_11char_traitsIcEEE6sentrycvbB7v160006Ev, symObjAddr: 0xCC1C, symBinAddr: 0x10000F328, symSize: 0x1C }
  - { offsetInCU: 0x1FFB2, offset: 0x264BE, size: 0x8, addend: 0x0, symName: __ZNSt3__119ostreambuf_iteratorIcNS_11char_traitsIcEEEC1B7v160006ERNS_13basic_ostreamIcS2_EE, symObjAddr: 0xCE78, symBinAddr: 0x10000F584, symSize: 0x34 }
  - { offsetInCU: 0x1FFE8, offset: 0x264F4, size: 0x8, addend: 0x0, symName: __ZNKSt3__18ios_base5flagsB7v160006Ev, symObjAddr: 0xCEAC, symBinAddr: 0x10000F5B8, symSize: 0x18 }
  - { offsetInCU: 0x2000F, offset: 0x2651B, size: 0x8, addend: 0x0, symName: __ZNKSt3__19basic_iosIcNS_11char_traitsIcEEE4fillB7v160006Ev, symObjAddr: 0xCEC4, symBinAddr: 0x10000F5D0, symSize: 0x64 }
  - { offsetInCU: 0x20036, offset: 0x26542, size: 0x8, addend: 0x0, symName: __ZNKSt3__119ostreambuf_iteratorIcNS_11char_traitsIcEEE6failedB7v160006Ev, symObjAddr: 0xCF28, symBinAddr: 0x10000F634, symSize: 0x24 }
  - { offsetInCU: 0x2005B, offset: 0x26567, size: 0x8, addend: 0x0, symName: __ZNSt3__19basic_iosIcNS_11char_traitsIcEEE8setstateB7v160006Ej, symObjAddr: 0xCF4C, symBinAddr: 0x10000F658, symSize: 0x2C }
  - { offsetInCU: 0x2008F, offset: 0x2659B, size: 0x8, addend: 0x0, symName: __ZNKSt3__18ios_base5widthB7v160006Ev, symObjAddr: 0xCF78, symBinAddr: 0x10000F684, symSize: 0x18 }
  - { offsetInCU: 0x200B6, offset: 0x265C2, size: 0x8, addend: 0x0, symName: __ZNSt3__115basic_streambufIcNS_11char_traitsIcEEE5sputnB7v160006EPKcl, symObjAddr: 0xCF90, symBinAddr: 0x10000F69C, symSize: 0x3C }
  - { offsetInCU: 0x200F7, offset: 0x26603, size: 0x8, addend: 0x0, symName: __ZNSt3__112basic_stringIcNS_11char_traitsIcEENS_9allocatorIcEEEC1B7v160006Emc, symObjAddr: 0xCFCC, symBinAddr: 0x10000F6D8, symSize: 0x3C }
  - { offsetInCU: 0x2013D, offset: 0x26649, size: 0x8, addend: 0x0, symName: __ZNSt3__112basic_stringIcNS_11char_traitsIcEENS_9allocatorIcEEE4dataB7v160006Ev, symObjAddr: 0xD008, symBinAddr: 0x10000F714, symSize: 0x28 }
  - { offsetInCU: 0x20162, offset: 0x2666E, size: 0x8, addend: 0x0, symName: __ZNSt3__18ios_base5widthB7v160006El, symObjAddr: 0xD030, symBinAddr: 0x10000F73C, symSize: 0x2C }
  - { offsetInCU: 0x201A8, offset: 0x266B4, size: 0x8, addend: 0x0, symName: __ZNSt3__112basic_stringIcNS_11char_traitsIcEENS_9allocatorIcEEEC2B7v160006Emc, symObjAddr: 0xD05C, symBinAddr: 0x10000F768, symSize: 0x54 }
  - { offsetInCU: 0x201EE, offset: 0x266FA, size: 0x8, addend: 0x0, symName: __ZNSt3__112basic_stringIcNS_11char_traitsIcEENS_9allocatorIcEEE13__get_pointerB7v160006Ev, symObjAddr: 0xD1CC, symBinAddr: 0x10000F7D0, symSize: 0x54 }
  - { offsetInCU: 0x20213, offset: 0x2671F, size: 0x8, addend: 0x0, symName: __ZNSt3__112basic_stringIcNS_11char_traitsIcEENS_9allocatorIcEEE18__get_long_pointerB7v160006Ev, symObjAddr: 0xD220, symBinAddr: 0x10000F824, symSize: 0x28 }
  - { offsetInCU: 0x20238, offset: 0x26744, size: 0x8, addend: 0x0, symName: __ZNSt3__112basic_stringIcNS_11char_traitsIcEENS_9allocatorIcEEE19__get_short_pointerB7v160006Ev, symObjAddr: 0xD248, symBinAddr: 0x10000F84C, symSize: 0x28 }
  - { offsetInCU: 0x2025D, offset: 0x26769, size: 0x8, addend: 0x0, symName: __ZNSt3__117__compressed_pairINS_12basic_stringIcNS_11char_traitsIcEENS_9allocatorIcEEE5__repES5_E5firstB7v160006Ev, symObjAddr: 0xD270, symBinAddr: 0x10000F874, symSize: 0x24 }
  - { offsetInCU: 0x20282, offset: 0x2678E, size: 0x8, addend: 0x0, symName: __ZNSt3__122__compressed_pair_elemINS_12basic_stringIcNS_11char_traitsIcEENS_9allocatorIcEEE5__repELi0ELb0EE5__getB7v160006Ev, symObjAddr: 0xD294, symBinAddr: 0x10000F898, symSize: 0x14 }
  - { offsetInCU: 0x202A7, offset: 0x267B3, size: 0x8, addend: 0x0, symName: __ZNSt3__114pointer_traitsIPcE10pointer_toB7v160006ERc, symObjAddr: 0xD2A8, symBinAddr: 0x10000F8AC, symSize: 0x14 }
  - { offsetInCU: 0x202CA, offset: 0x267D6, size: 0x8, addend: 0x0, symName: __ZNSt3__119ostreambuf_iteratorIcNS_11char_traitsIcEEEC2B7v160006ERNS_13basic_ostreamIcS2_EE, symObjAddr: 0xD2BC, symBinAddr: 0x10000F8C0, symSize: 0x54 }
  - { offsetInCU: 0x20300, offset: 0x2680C, size: 0x8, addend: 0x0, symName: __ZNKSt3__19basic_iosIcNS_11char_traitsIcEEE5rdbufB7v160006Ev, symObjAddr: 0xD310, symBinAddr: 0x10000F914, symSize: 0x24 }
  - { offsetInCU: 0x20327, offset: 0x26833, size: 0x8, addend: 0x0, symName: __ZNKSt3__18ios_base5rdbufB7v160006Ev, symObjAddr: 0xD334, symBinAddr: 0x10000F938, symSize: 0x18 }
  - { offsetInCU: 0x2034C, offset: 0x26858, size: 0x8, addend: 0x0, symName: __ZNSt3__111char_traitsIcE11eq_int_typeEii, symObjAddr: 0xD34C, symBinAddr: 0x10000F950, symSize: 0x28 }
  - { offsetInCU: 0x2037D, offset: 0x26889, size: 0x8, addend: 0x0, symName: __ZNSt3__111char_traitsIcE3eofEv, symObjAddr: 0xD374, symBinAddr: 0x10000F978, symSize: 0x8 }
  - { offsetInCU: 0x20391, offset: 0x2689D, size: 0x8, addend: 0x0, symName: __ZNKSt3__19basic_iosIcNS_11char_traitsIcEEE5widenB7v160006Ec, symObjAddr: 0xD37C, symBinAddr: 0x10000F980, symSize: 0x84 }
  - { offsetInCU: 0x203FE, offset: 0x2690A, size: 0x8, addend: 0x0, symName: __ZNKSt3__15ctypeIcE5widenB7v160006Ec, symObjAddr: 0xD42C, symBinAddr: 0x10000FA30, symSize: 0x38 }
  - { offsetInCU: 0x20432, offset: 0x2693E, size: 0x8, addend: 0x0, symName: __ZNSt3__18ios_base8setstateB7v160006Ej, symObjAddr: 0xD464, symBinAddr: 0x10000FA68, symSize: 0x34 }
  - { offsetInCU: 0x2047C, offset: 0x26988, size: 0x8, addend: 0x0, symName: __ZNSt3__16__treeINS_12__value_typeINS_12basic_stringIcNS_11char_traitsIcEENS_9allocatorIcEEEEiEENS_19__map_value_compareIS7_S8_NS_4lessIS7_EELb1EEENS5_IS8_EEE25__emplace_unique_key_argsIS7_JRKNS_21piecewise_construct_tENS_5tupleIJRKS7_EEENSJ_IJEEEEEENS_4pairINS_15__tree_iteratorIS8_PNS_11__tree_nodeIS8_PvEElEEbEERKT_DpOT0_, symObjAddr: 0xD4BC, symBinAddr: 0x10000FA9C, symSize: 0x100 }
  - { offsetInCU: 0x20557, offset: 0x26A63, size: 0x8, addend: 0x0, symName: __ZNKSt3__115__tree_iteratorINS_12__value_typeINS_12basic_stringIcNS_11char_traitsIcEENS_9allocatorIcEEEEiEEPNS_11__tree_nodeIS8_PvEElEptB7v160006Ev, symObjAddr: 0xD5EC, symBinAddr: 0x10000FBCC, symSize: 0x2C }
  - { offsetInCU: 0x2057C, offset: 0x26A88, size: 0x8, addend: 0x0, symName: __ZNSt3__16__treeINS_12__value_typeINS_12basic_stringIcNS_11char_traitsIcEENS_9allocatorIcEEEEiEENS_19__map_value_compareIS7_S8_NS_4lessIS7_EELb1EEENS5_IS8_EEE16__construct_nodeIJRKNS_21piecewise_construct_tENS_5tupleIJRKS7_EEENSJ_IJEEEEEENS_10unique_ptrINS_11__tree_nodeIS8_PvEENS_22__tree_node_destructorINS5_ISR_EEEEEEDpOT_, symObjAddr: 0xD618, symBinAddr: 0x10000FBF8, symSize: 0x120 }
  - { offsetInCU: 0x20606, offset: 0x26B12, size: 0x8, addend: 0x0, symName: __ZNSt3__116allocator_traitsINS_9allocatorINS_11__tree_nodeINS_12__value_typeINS_12basic_stringIcNS_11char_traitsIcEENS1_IcEEEEiEEPvEEEEE9constructB7v160006INS_4pairIKS8_iEEJRKNS_21piecewise_construct_tENS_5tupleIJRSG_EEENSL_IJEEEEvvEEvRSC_PT_DpOT0_, symObjAddr: 0xD738, symBinAddr: 0x10000FD18, symSize: 0x40 }
  - { offsetInCU: 0x20682, offset: 0x26B8E, size: 0x8, addend: 0x0, symName: __ZNSt3__14pairIKNS_12basic_stringIcNS_11char_traitsIcEENS_9allocatorIcEEEEiEC1B7v160006IJRS7_EJEEENS_21piecewise_construct_tENS_5tupleIJDpT_EEENSC_IJDpT0_EEE, symObjAddr: 0xD7C8, symBinAddr: 0x10000FDA8, symSize: 0x3C }
  - { offsetInCU: 0x206E7, offset: 0x26BF3, size: 0x8, addend: 0x0, symName: __ZNSt3__14pairIKNS_12basic_stringIcNS_11char_traitsIcEENS_9allocatorIcEEEEiEC1B7v160006IJRS7_EJEJLm0EEJEEENS_21piecewise_construct_tERNS_5tupleIJDpT_EEERNSC_IJDpT0_EEENS_15__tuple_indicesIJXspT1_EEEENSL_IJXspT2_EEEE, symObjAddr: 0xD804, symBinAddr: 0x10000FDE4, symSize: 0x3C }
  - { offsetInCU: 0x20776, offset: 0x26C82, size: 0x8, addend: 0x0, symName: __ZNSt3__14pairIKNS_12basic_stringIcNS_11char_traitsIcEENS_9allocatorIcEEEEiEC2B7v160006IJRS7_EJEJLm0EEJEEENS_21piecewise_construct_tERNS_5tupleIJDpT_EEERNSC_IJDpT0_EEENS_15__tuple_indicesIJXspT1_EEEENSL_IJXspT2_EEEE, symObjAddr: 0xD840, symBinAddr: 0x10000FE20, symSize: 0x48 }
  - { offsetInCU: 0x20805, offset: 0x26D11, size: 0x8, addend: 0x0, symName: __ZNSt3__112__tuple_leafILm0ERKNS_12basic_stringIcNS_11char_traitsIcEENS_9allocatorIcEEEELb0EE3getB7v160006Ev, symObjAddr: 0xD8AC, symBinAddr: 0x10000FE8C, symSize: 0x18 }
  - { offsetInCU: 0x2082A, offset: 0x26D36, size: 0x8, addend: 0x0, symName: __ZNSt3__15tupleIJRKNS_12basic_stringIcNS_11char_traitsIcEENS_9allocatorIcEEEEEEC1B7v160006INS_4_AndELi0EEES8_, symObjAddr: 0xD8C4, symBinAddr: 0x10000FEA4, symSize: 0x34 }
  - { offsetInCU: 0x20871, offset: 0x26D7D, size: 0x8, addend: 0x0, symName: __ZNSt3__15tupleIJRKNS_12basic_stringIcNS_11char_traitsIcEENS_9allocatorIcEEEEEEC2B7v160006INS_4_AndELi0EEES8_, symObjAddr: 0xD8F8, symBinAddr: 0x10000FED8, symSize: 0x34 }
  - { offsetInCU: 0x208B8, offset: 0x26DC4, size: 0x8, addend: 0x0, symName: __ZNSt3__112__tuple_implINS_15__tuple_indicesIJLm0EEEEJRKNS_12basic_stringIcNS_11char_traitsIcEENS_9allocatorIcEEEEEEC1B7v160006IJLm0EEJSA_EJEJEJSA_EEENS1_IJXspT_EEEENS_13__tuple_typesIJDpT0_EEENS1_IJXspT1_EEEENSE_IJDpT2_EEEDpOT3_, symObjAddr: 0xD92C, symBinAddr: 0x10000FF0C, symSize: 0x34 }
  - { offsetInCU: 0x2094B, offset: 0x26E57, size: 0x8, addend: 0x0, symName: __ZNSt3__112__tuple_implINS_15__tuple_indicesIJLm0EEEEJRKNS_12basic_stringIcNS_11char_traitsIcEENS_9allocatorIcEEEEEEC2B7v160006IJLm0EEJSA_EJEJEJSA_EEENS1_IJXspT_EEEENS_13__tuple_typesIJDpT0_EEENS1_IJXspT1_EEEENSE_IJDpT2_EEEDpOT3_, symObjAddr: 0xD960, symBinAddr: 0x10000FF40, symSize: 0x34 }
  - { offsetInCU: 0x209DE, offset: 0x26EEA, size: 0x8, addend: 0x0, symName: __ZNSt3__112__tuple_leafILm0ERKNS_12basic_stringIcNS_11char_traitsIcEENS_9allocatorIcEEEELb0EEC2B7v160006IS8_vEEOT_, symObjAddr: 0xD994, symBinAddr: 0x10000FF74, symSize: 0x20 }
  - { offsetInCU: 0x20A1F, offset: 0x26F2B, size: 0x8, addend: 0x0, symName: __ZNSt3__114pointer_traitsIPNS_12__value_typeINS_12basic_stringIcNS_11char_traitsIcEENS_9allocatorIcEEEEiEEE10pointer_toB7v160006ERS8_, symObjAddr: 0xD9B4, symBinAddr: 0x10000FF94, symSize: 0x14 }
  - { offsetInCU: 0x20A42, offset: 0x26F4E, size: 0x8, addend: 0x0, symName: __ZNKSt3__115__tree_iteratorINS_12__value_typeINS_12basic_stringIcNS_11char_traitsIcEENS_9allocatorIcEEEEiEEPNS_11__tree_nodeIS8_PvEElE8__get_npB7v160006Ev, symObjAddr: 0xD9C8, symBinAddr: 0x10000FFA8, symSize: 0x18 }
  - { offsetInCU: 0x20A67, offset: 0x26F73, size: 0x8, addend: 0x0, symName: __ZNSt3__13mapIiiNS_4lessIiEENS_9allocatorINS_4pairIKiiEEEEEC2B7v160006Ev, symObjAddr: 0xD9E0, symBinAddr: 0x10000FFC0, symSize: 0x40 }
  - { offsetInCU: 0x20A8F, offset: 0x26F9B, size: 0x8, addend: 0x0, symName: __ZNSt3__119__map_value_compareIiNS_12__value_typeIiiEENS_4lessIiEELb1EEC1B7v160006ES4_, symObjAddr: 0xDA20, symBinAddr: 0x100010000, symSize: 0x2C }
  - { offsetInCU: 0x20AC6, offset: 0x26FD2, size: 0x8, addend: 0x0, symName: __ZNSt3__16__treeINS_12__value_typeIiiEENS_19__map_value_compareIiS2_NS_4lessIiEELb1EEENS_9allocatorIS2_EEEC1ERKS6_, symObjAddr: 0xDA4C, symBinAddr: 0x10001002C, symSize: 0x34 }
  - { offsetInCU: 0x20B00, offset: 0x2700C, size: 0x8, addend: 0x0, symName: __ZNSt3__119__map_value_compareIiNS_12__value_typeIiiEENS_4lessIiEELb1EEC2B7v160006ES4_, symObjAddr: 0xDA80, symBinAddr: 0x100010060, symSize: 0x14 }
  - { offsetInCU: 0x20B37, offset: 0x27043, size: 0x8, addend: 0x0, symName: __ZNSt3__16__treeINS_12__value_typeIiiEENS_19__map_value_compareIiS2_NS_4lessIiEELb1EEENS_9allocatorIS2_EEEC2ERKS6_, symObjAddr: 0xDA94, symBinAddr: 0x100010074, symSize: 0x7C }
  - { offsetInCU: 0x20B71, offset: 0x2707D, size: 0x8, addend: 0x0, symName: __ZNSt3__117__compressed_pairINS_15__tree_end_nodeIPNS_16__tree_node_baseIPvEEEENS_9allocatorINS_11__tree_nodeINS_12__value_typeIiiEES3_EEEEEC1B7v160006ILb1EvEEv, symObjAddr: 0xDB10, symBinAddr: 0x1000100F0, symSize: 0x2C }
  - { offsetInCU: 0x20BA4, offset: 0x270B0, size: 0x8, addend: 0x0, symName: __ZNSt3__117__compressed_pairImNS_19__map_value_compareIiNS_12__value_typeIiiEENS_4lessIiEELb1EEEEC1B7v160006IiRKS6_EEOT_OT0_, symObjAddr: 0xDB3C, symBinAddr: 0x10001011C, symSize: 0x3C }
  - { offsetInCU: 0x20BFA, offset: 0x27106, size: 0x8, addend: 0x0, symName: __ZNSt3__16__treeINS_12__value_typeIiiEENS_19__map_value_compareIiS2_NS_4lessIiEELb1EEENS_9allocatorIS2_EEE10__end_nodeB7v160006Ev, symObjAddr: 0xDB78, symBinAddr: 0x100010158, symSize: 0x2C }
  - { offsetInCU: 0x20C1F, offset: 0x2712B, size: 0x8, addend: 0x0, symName: __ZNSt3__16__treeINS_12__value_typeIiiEENS_19__map_value_compareIiS2_NS_4lessIiEELb1EEENS_9allocatorIS2_EEE12__begin_nodeB7v160006Ev, symObjAddr: 0xDBA4, symBinAddr: 0x100010184, symSize: 0x14 }
  - { offsetInCU: 0x20C44, offset: 0x27150, size: 0x8, addend: 0x0, symName: __ZNSt3__117__compressed_pairINS_15__tree_end_nodeIPNS_16__tree_node_baseIPvEEEENS_9allocatorINS_11__tree_nodeINS_12__value_typeIiiEES3_EEEEEC2B7v160006ILb1EvEEv, symObjAddr: 0xDBB8, symBinAddr: 0x100010198, symSize: 0x34 }
  - { offsetInCU: 0x20C77, offset: 0x27183, size: 0x8, addend: 0x0, symName: __ZNSt3__122__compressed_pair_elemINS_9allocatorINS_11__tree_nodeINS_12__value_typeIiiEEPvEEEELi1ELb1EEC2B7v160006ENS_16__value_init_tagE, symObjAddr: 0xDBEC, symBinAddr: 0x1000101CC, symSize: 0x2C }
  - { offsetInCU: 0x20CA9, offset: 0x271B5, size: 0x8, addend: 0x0, symName: __ZNSt3__19allocatorINS_11__tree_nodeINS_12__value_typeIiiEEPvEEEC2B7v160006Ev, symObjAddr: 0xDC18, symBinAddr: 0x1000101F8, symSize: 0x2C }
  - { offsetInCU: 0x20CD1, offset: 0x271DD, size: 0x8, addend: 0x0, symName: __ZNSt3__116__non_trivial_ifILb1ENS_9allocatorINS_11__tree_nodeINS_12__value_typeIiiEEPvEEEEEC2B7v160006Ev, symObjAddr: 0xDC44, symBinAddr: 0x100010224, symSize: 0x14 }
  - { offsetInCU: 0x20CF9, offset: 0x27205, size: 0x8, addend: 0x0, symName: __ZNSt3__117__compressed_pairImNS_19__map_value_compareIiNS_12__value_typeIiiEENS_4lessIiEELb1EEEEC2B7v160006IiRKS6_EEOT_OT0_, symObjAddr: 0xDC58, symBinAddr: 0x100010238, symSize: 0x44 }
  - { offsetInCU: 0x20D4F, offset: 0x2725B, size: 0x8, addend: 0x0, symName: __ZNSt3__122__compressed_pair_elemINS_19__map_value_compareIiNS_12__value_typeIiiEENS_4lessIiEELb1EEELi1ELb1EEC2B7v160006IRKS6_vEEOT_, symObjAddr: 0xDC9C, symBinAddr: 0x10001027C, symSize: 0x18 }
  - { offsetInCU: 0x20D8F, offset: 0x2729B, size: 0x8, addend: 0x0, symName: __ZNSt3__117__compressed_pairINS_15__tree_end_nodeIPNS_16__tree_node_baseIPvEEEENS_9allocatorINS_11__tree_nodeINS_12__value_typeIiiEES3_EEEEE5firstB7v160006Ev, symObjAddr: 0xDCB4, symBinAddr: 0x100010294, symSize: 0x24 }
  - { offsetInCU: 0x20DB4, offset: 0x272C0, size: 0x8, addend: 0x0, symName: __ZNSt3__13mapIiiNS_4lessIiEENS_9allocatorINS_4pairIKiiEEEEED2B7v160006Ev, symObjAddr: 0xDCD8, symBinAddr: 0x1000102B8, symSize: 0x2C }
  - { offsetInCU: 0x20DDC, offset: 0x272E8, size: 0x8, addend: 0x0, symName: __ZNSt3__16__treeINS_12__value_typeIiiEENS_19__map_value_compareIiS2_NS_4lessIiEELb1EEENS_9allocatorIS2_EEED1Ev, symObjAddr: 0xDD04, symBinAddr: 0x1000102E4, symSize: 0x2C }
  - { offsetInCU: 0x20E07, offset: 0x27313, size: 0x8, addend: 0x0, symName: __ZNSt3__16__treeINS_12__value_typeIiiEENS_19__map_value_compareIiS2_NS_4lessIiEELb1EEENS_9allocatorIS2_EEED2Ev, symObjAddr: 0xDD30, symBinAddr: 0x100010310, symSize: 0x38 }
  - { offsetInCU: 0x20E32, offset: 0x2733E, size: 0x8, addend: 0x0, symName: __ZNSt3__16__treeINS_12__value_typeIiiEENS_19__map_value_compareIiS2_NS_4lessIiEELb1EEENS_9allocatorIS2_EEE7destroyEPNS_11__tree_nodeIS2_PvEE, symObjAddr: 0xDD68, symBinAddr: 0x100010348, symSize: 0xAC }
  - { offsetInCU: 0x20E7F, offset: 0x2738B, size: 0x8, addend: 0x0, symName: __ZNKSt3__16__treeINS_12__value_typeIiiEENS_19__map_value_compareIiS2_NS_4lessIiEELb1EEENS_9allocatorIS2_EEE6__rootB7v160006Ev, symObjAddr: 0xDE14, symBinAddr: 0x1000103F4, symSize: 0x28 }
  - { offsetInCU: 0x20EA4, offset: 0x273B0, size: 0x8, addend: 0x0, symName: __ZNSt3__16__treeINS_12__value_typeIiiEENS_19__map_value_compareIiS2_NS_4lessIiEELb1EEENS_9allocatorIS2_EEE12__node_allocB7v160006Ev, symObjAddr: 0xDE3C, symBinAddr: 0x10001041C, symSize: 0x28 }
  - { offsetInCU: 0x20EC9, offset: 0x273D5, size: 0x8, addend: 0x0, symName: __ZNSt3__116allocator_traitsINS_9allocatorINS_11__tree_nodeINS_12__value_typeIiiEEPvEEEEE7destroyB7v160006INS_4pairIKiiEEvvEEvRS7_PT_, symObjAddr: 0xDE64, symBinAddr: 0x100010444, symSize: 0x28 }
  - { offsetInCU: 0x20F03, offset: 0x2740F, size: 0x8, addend: 0x0, symName: __ZNSt3__122__tree_key_value_typesINS_12__value_typeIiiEEE9__get_ptrB7v160006ERS2_, symObjAddr: 0xDE8C, symBinAddr: 0x10001046C, symSize: 0x24 }
  - { offsetInCU: 0x20F26, offset: 0x27432, size: 0x8, addend: 0x0, symName: __ZNSt3__116allocator_traitsINS_9allocatorINS_11__tree_nodeINS_12__value_typeIiiEEPvEEEEE10deallocateB7v160006ERS7_PS6_m, symObjAddr: 0xDEB0, symBinAddr: 0x100010490, symSize: 0x34 }
  - { offsetInCU: 0x20F67, offset: 0x27473, size: 0x8, addend: 0x0, symName: __ZNSt3__117__compressed_pairINS_15__tree_end_nodeIPNS_16__tree_node_baseIPvEEEENS_9allocatorINS_11__tree_nodeINS_12__value_typeIiiEES3_EEEEE6secondB7v160006Ev, symObjAddr: 0xDEE4, symBinAddr: 0x1000104C4, symSize: 0x24 }
  - { offsetInCU: 0x20F8C, offset: 0x27498, size: 0x8, addend: 0x0, symName: __ZNSt3__122__compressed_pair_elemINS_9allocatorINS_11__tree_nodeINS_12__value_typeIiiEEPvEEEELi1ELb1EE5__getB7v160006Ev, symObjAddr: 0xDF08, symBinAddr: 0x1000104E8, symSize: 0x14 }
  - { offsetInCU: 0x20FB1, offset: 0x274BD, size: 0x8, addend: 0x0, symName: __ZNSt3__112__value_typeIiiE11__get_valueB7v160006Ev, symObjAddr: 0xDF50, symBinAddr: 0x100010530, symSize: 0x24 }
  - { offsetInCU: 0x20FD6, offset: 0x274E2, size: 0x8, addend: 0x0, symName: __ZNSt3__19allocatorINS_11__tree_nodeINS_12__value_typeIiiEEPvEEE10deallocateB7v160006EPS5_m, symObjAddr: 0xDFAC, symBinAddr: 0x10001058C, symSize: 0x44 }
  - { offsetInCU: 0x21017, offset: 0x27523, size: 0x8, addend: 0x0, symName: __ZNKSt3__16__treeINS_12__value_typeIiiEENS_19__map_value_compareIiS2_NS_4lessIiEELb1EEENS_9allocatorIS2_EEE10__end_nodeB7v160006Ev, symObjAddr: 0xDFF0, symBinAddr: 0x1000105D0, symSize: 0x2C }
  - { offsetInCU: 0x2103C, offset: 0x27548, size: 0x8, addend: 0x0, symName: __ZNKSt3__117__compressed_pairINS_15__tree_end_nodeIPNS_16__tree_node_baseIPvEEEENS_9allocatorINS_11__tree_nodeINS_12__value_typeIiiEES3_EEEEE5firstB7v160006Ev, symObjAddr: 0xE01C, symBinAddr: 0x1000105FC, symSize: 0x24 }
  - { offsetInCU: 0x21061, offset: 0x2756D, size: 0x8, addend: 0x0, symName: __ZNSt3__16__treeINS_12__value_typeIiiEENS_19__map_value_compareIiS2_NS_4lessIiEELb1EEENS_9allocatorIS2_EEE25__emplace_unique_key_argsIiJRKNS_21piecewise_construct_tENS_5tupleIJRKiEEENSE_IJEEEEEENS_4pairINS_15__tree_iteratorIS2_PNS_11__tree_nodeIS2_PvEElEEbEERKT_DpOT0_, symObjAddr: 0xE040, symBinAddr: 0x100010620, symSize: 0x100 }
  - { offsetInCU: 0x2113C, offset: 0x27648, size: 0x8, addend: 0x0, symName: __ZNKSt3__115__tree_iteratorINS_12__value_typeIiiEEPNS_11__tree_nodeIS2_PvEElEptB7v160006Ev, symObjAddr: 0xE16C, symBinAddr: 0x10001074C, symSize: 0x2C }
  - { offsetInCU: 0x21161, offset: 0x2766D, size: 0x8, addend: 0x0, symName: __ZNSt3__16__treeINS_12__value_typeIiiEENS_19__map_value_compareIiS2_NS_4lessIiEELb1EEENS_9allocatorIS2_EEE12__find_equalIiEERPNS_16__tree_node_baseIPvEERPNS_15__tree_end_nodeISE_EERKT_, symObjAddr: 0xE198, symBinAddr: 0x100010778, symSize: 0x184 }
  - { offsetInCU: 0x211CF, offset: 0x276DB, size: 0x8, addend: 0x0, symName: __ZNSt3__16__treeINS_12__value_typeIiiEENS_19__map_value_compareIiS2_NS_4lessIiEELb1EEENS_9allocatorIS2_EEE16__construct_nodeIJRKNS_21piecewise_construct_tENS_5tupleIJRKiEEENSE_IJEEEEEENS_10unique_ptrINS_11__tree_nodeIS2_PvEENS_22__tree_node_destructorINS7_ISM_EEEEEEDpOT_, symObjAddr: 0xE31C, symBinAddr: 0x1000108FC, symSize: 0x120 }
  - { offsetInCU: 0x21259, offset: 0x27765, size: 0x8, addend: 0x0, symName: __ZNSt3__16__treeINS_12__value_typeIiiEENS_19__map_value_compareIiS2_NS_4lessIiEELb1EEENS_9allocatorIS2_EEE16__insert_node_atEPNS_15__tree_end_nodeIPNS_16__tree_node_baseIPvEEEERSE_SE_, symObjAddr: 0xE43C, symBinAddr: 0x100010A1C, symSize: 0xCC }
  - { offsetInCU: 0x212AD, offset: 0x277B9, size: 0x8, addend: 0x0, symName: __ZNKSt3__110unique_ptrINS_11__tree_nodeINS_12__value_typeIiiEEPvEENS_22__tree_node_destructorINS_9allocatorIS5_EEEEE3getB7v160006Ev, symObjAddr: 0xE508, symBinAddr: 0x100010AE8, symSize: 0x28 }
  - { offsetInCU: 0x212D2, offset: 0x277DE, size: 0x8, addend: 0x0, symName: __ZNSt3__110unique_ptrINS_11__tree_nodeINS_12__value_typeIiiEEPvEENS_22__tree_node_destructorINS_9allocatorIS5_EEEEE7releaseB7v160006Ev, symObjAddr: 0xE530, symBinAddr: 0x100010B10, symSize: 0x44 }
  - { offsetInCU: 0x21307, offset: 0x27813, size: 0x8, addend: 0x0, symName: __ZNSt3__110unique_ptrINS_11__tree_nodeINS_12__value_typeIiiEEPvEENS_22__tree_node_destructorINS_9allocatorIS5_EEEEED1B7v160006Ev, symObjAddr: 0xE574, symBinAddr: 0x100010B54, symSize: 0x2C }
  - { offsetInCU: 0x2132F, offset: 0x2783B, size: 0x8, addend: 0x0, symName: __ZNSt3__115__tree_iteratorINS_12__value_typeIiiEEPNS_11__tree_nodeIS2_PvEElEC1B7v160006ES6_, symObjAddr: 0xE5A0, symBinAddr: 0x100010B80, symSize: 0x34 }
  - { offsetInCU: 0x2136B, offset: 0x27877, size: 0x8, addend: 0x0, symName: __ZNSt3__14pairINS_15__tree_iteratorINS_12__value_typeIiiEEPNS_11__tree_nodeIS3_PvEElEEbEC1B7v160006IS8_RbLS5_0EEEOT_OT0_, symObjAddr: 0xE5D4, symBinAddr: 0x100010BB4, symSize: 0x3C }
  - { offsetInCU: 0x213C7, offset: 0x278D3, size: 0x8, addend: 0x0, symName: __ZNKSt3__16__treeINS_12__value_typeIiiEENS_19__map_value_compareIiS2_NS_4lessIiEELb1EEENS_9allocatorIS2_EEE10__root_ptrEv, symObjAddr: 0xE610, symBinAddr: 0x100010BF0, symSize: 0x24 }
  - { offsetInCU: 0x213EC, offset: 0x278F8, size: 0x8, addend: 0x0, symName: __ZNSt3__16__treeINS_12__value_typeIiiEENS_19__map_value_compareIiS2_NS_4lessIiEELb1EEENS_9allocatorIS2_EEE10value_compB7v160006Ev, symObjAddr: 0xE634, symBinAddr: 0x100010C14, symSize: 0x28 }
  - { offsetInCU: 0x21411, offset: 0x2791D, size: 0x8, addend: 0x0, symName: __ZNKSt3__119__map_value_compareIiNS_12__value_typeIiiEENS_4lessIiEELb1EEclB7v160006ERKiRKS2_, symObjAddr: 0xE65C, symBinAddr: 0x100010C3C, symSize: 0x50 }
  - { offsetInCU: 0x21454, offset: 0x27960, size: 0x8, addend: 0x0, symName: __ZNKSt3__119__map_value_compareIiNS_12__value_typeIiiEENS_4lessIiEELb1EEclB7v160006ERKS2_RKi, symObjAddr: 0xE6AC, symBinAddr: 0x100010C8C, symSize: 0x48 }
  - { offsetInCU: 0x21497, offset: 0x279A3, size: 0x8, addend: 0x0, symName: __ZNSt3__117__compressed_pairImNS_19__map_value_compareIiNS_12__value_typeIiiEENS_4lessIiEELb1EEEE6secondB7v160006Ev, symObjAddr: 0xE6F4, symBinAddr: 0x100010CD4, symSize: 0x24 }
  - { offsetInCU: 0x214BC, offset: 0x279C8, size: 0x8, addend: 0x0, symName: __ZNSt3__122__compressed_pair_elemINS_19__map_value_compareIiNS_12__value_typeIiiEENS_4lessIiEELb1EEELi1ELb1EE5__getB7v160006Ev, symObjAddr: 0xE718, symBinAddr: 0x100010CF8, symSize: 0x14 }
  - { offsetInCU: 0x214E1, offset: 0x279ED, size: 0x8, addend: 0x0, symName: __ZNKSt3__14lessIiEclB7v160006ERKiS3_, symObjAddr: 0xE72C, symBinAddr: 0x100010D0C, symSize: 0x34 }
  - { offsetInCU: 0x21524, offset: 0x27A30, size: 0x8, addend: 0x0, symName: __ZNKSt3__112__value_typeIiiE11__get_valueB7v160006Ev, symObjAddr: 0xE760, symBinAddr: 0x100010D40, symSize: 0x24 }
  - { offsetInCU: 0x21549, offset: 0x27A55, size: 0x8, addend: 0x0, symName: __ZNSt3__116allocator_traitsINS_9allocatorINS_11__tree_nodeINS_12__value_typeIiiEEPvEEEEE8allocateB7v160006ERS7_m, symObjAddr: 0xE7BC, symBinAddr: 0x100010D9C, symSize: 0x2C }
  - { offsetInCU: 0x2157B, offset: 0x27A87, size: 0x8, addend: 0x0, symName: __ZNSt3__122__tree_node_destructorINS_9allocatorINS_11__tree_nodeINS_12__value_typeIiiEEPvEEEEEC1B7v160006ERS7_b, symObjAddr: 0xE7E8, symBinAddr: 0x100010DC8, symSize: 0x48 }
  - { offsetInCU: 0x215C6, offset: 0x27AD2, size: 0x8, addend: 0x0, symName: __ZNSt3__110unique_ptrINS_11__tree_nodeINS_12__value_typeIiiEEPvEENS_22__tree_node_destructorINS_9allocatorIS5_EEEEEC1B7v160006ILb1EvEEPS5_NS_16__dependent_typeINS_27__unique_ptr_deleter_sfinaeIS9_EEXT_EE20__good_rval_ref_typeE, symObjAddr: 0xE830, symBinAddr: 0x100010E10, symSize: 0x3C }
  - { offsetInCU: 0x21615, offset: 0x27B21, size: 0x8, addend: 0x0, symName: __ZNSt3__116allocator_traitsINS_9allocatorINS_11__tree_nodeINS_12__value_typeIiiEEPvEEEEE9constructB7v160006INS_4pairIKiiEEJRKNS_21piecewise_construct_tENS_5tupleIJRSB_EEENSG_IJEEEEvvEEvRS7_PT_DpOT0_, symObjAddr: 0xE86C, symBinAddr: 0x100010E4C, symSize: 0x40 }
  - { offsetInCU: 0x21691, offset: 0x27B9D, size: 0x8, addend: 0x0, symName: __ZNKSt3__110unique_ptrINS_11__tree_nodeINS_12__value_typeIiiEEPvEENS_22__tree_node_destructorINS_9allocatorIS5_EEEEEptB7v160006Ev, symObjAddr: 0xE8AC, symBinAddr: 0x100010E8C, symSize: 0x28 }
  - { offsetInCU: 0x216B6, offset: 0x27BC2, size: 0x8, addend: 0x0, symName: __ZNSt3__110unique_ptrINS_11__tree_nodeINS_12__value_typeIiiEEPvEENS_22__tree_node_destructorINS_9allocatorIS5_EEEEE11get_deleterB7v160006Ev, symObjAddr: 0xE8D4, symBinAddr: 0x100010EB4, symSize: 0x24 }
  - { offsetInCU: 0x216DB, offset: 0x27BE7, size: 0x8, addend: 0x0, symName: __ZNSt3__19allocatorINS_11__tree_nodeINS_12__value_typeIiiEEPvEEE8allocateB7v160006Em, symObjAddr: 0xE8F8, symBinAddr: 0x100010ED8, symSize: 0x5C }
  - { offsetInCU: 0x21718, offset: 0x27C24, size: 0x8, addend: 0x0, symName: __ZNSt3__116allocator_traitsINS_9allocatorINS_11__tree_nodeINS_12__value_typeIiiEEPvEEEEE8max_sizeB7v160006IS7_vvEEmRKS7_, symObjAddr: 0xE954, symBinAddr: 0x100010F34, symSize: 0x28 }
  - { offsetInCU: 0x21743, offset: 0x27C4F, size: 0x8, addend: 0x0, symName: __ZNSt3__122__tree_node_destructorINS_9allocatorINS_11__tree_nodeINS_12__value_typeIiiEEPvEEEEEC2B7v160006ERS7_b, symObjAddr: 0xE97C, symBinAddr: 0x100010F5C, symSize: 0x38 }
  - { offsetInCU: 0x21789, offset: 0x27C95, size: 0x8, addend: 0x0, symName: __ZNSt3__110unique_ptrINS_11__tree_nodeINS_12__value_typeIiiEEPvEENS_22__tree_node_destructorINS_9allocatorIS5_EEEEEC2B7v160006ILb1EvEEPS5_NS_16__dependent_typeINS_27__unique_ptr_deleter_sfinaeIS9_EEXT_EE20__good_rval_ref_typeE, symObjAddr: 0xE9B4, symBinAddr: 0x100010F94, symSize: 0x48 }
  - { offsetInCU: 0x217D8, offset: 0x27CE4, size: 0x8, addend: 0x0, symName: __ZNSt3__117__compressed_pairIPNS_11__tree_nodeINS_12__value_typeIiiEEPvEENS_22__tree_node_destructorINS_9allocatorIS5_EEEEEC1B7v160006IRS6_SA_EEOT_OT0_, symObjAddr: 0xE9FC, symBinAddr: 0x100010FDC, symSize: 0x3C }
  - { offsetInCU: 0x2182E, offset: 0x27D3A, size: 0x8, addend: 0x0, symName: __ZNSt3__117__compressed_pairIPNS_11__tree_nodeINS_12__value_typeIiiEEPvEENS_22__tree_node_destructorINS_9allocatorIS5_EEEEEC2B7v160006IRS6_SA_EEOT_OT0_, symObjAddr: 0xEA38, symBinAddr: 0x100011018, symSize: 0x48 }
  - { offsetInCU: 0x21884, offset: 0x27D90, size: 0x8, addend: 0x0, symName: __ZNSt3__122__compressed_pair_elemIPNS_11__tree_nodeINS_12__value_typeIiiEEPvEELi0ELb0EEC2B7v160006IRS6_vEEOT_, symObjAddr: 0xEA80, symBinAddr: 0x100011060, symSize: 0x24 }
  - { offsetInCU: 0x218C4, offset: 0x27DD0, size: 0x8, addend: 0x0, symName: __ZNSt3__122__compressed_pair_elemINS_22__tree_node_destructorINS_9allocatorINS_11__tree_nodeINS_12__value_typeIiiEEPvEEEEEELi1ELb0EEC2B7v160006IS9_vEEOT_, symObjAddr: 0xEAA4, symBinAddr: 0x100011084, symSize: 0x24 }
  - { offsetInCU: 0x21904, offset: 0x27E10, size: 0x8, addend: 0x0, symName: __ZNSt3__14pairIKiiEC1B7v160006IJRS1_EJEEENS_21piecewise_construct_tENS_5tupleIJDpT_EEENS6_IJDpT0_EEE, symObjAddr: 0xEB18, symBinAddr: 0x1000110F8, symSize: 0x44 }
  - { offsetInCU: 0x21969, offset: 0x27E75, size: 0x8, addend: 0x0, symName: __ZNSt3__14pairIKiiEC1B7v160006IJRS1_EJEJLm0EEJEEENS_21piecewise_construct_tERNS_5tupleIJDpT_EEERNS6_IJDpT0_EEENS_15__tuple_indicesIJXspT1_EEEENSF_IJXspT2_EEEE, symObjAddr: 0xEB5C, symBinAddr: 0x10001113C, symSize: 0x3C }
  - { offsetInCU: 0x219F8, offset: 0x27F04, size: 0x8, addend: 0x0, symName: __ZNSt3__14pairIKiiEC2B7v160006IJRS1_EJEJLm0EEJEEENS_21piecewise_construct_tERNS_5tupleIJDpT_EEERNS6_IJDpT0_EEENS_15__tuple_indicesIJXspT1_EEEENSF_IJXspT2_EEEE, symObjAddr: 0xEB98, symBinAddr: 0x100011178, symSize: 0x48 }
  - { offsetInCU: 0x21A87, offset: 0x27F93, size: 0x8, addend: 0x0, symName: __ZNSt3__112__tuple_leafILm0ERKiLb0EE3getB7v160006Ev, symObjAddr: 0xEC04, symBinAddr: 0x1000111E4, symSize: 0x18 }
  - { offsetInCU: 0x21AAC, offset: 0x27FB8, size: 0x8, addend: 0x0, symName: __ZNKSt3__117__compressed_pairIPNS_11__tree_nodeINS_12__value_typeIiiEEPvEENS_22__tree_node_destructorINS_9allocatorIS5_EEEEE5firstB7v160006Ev, symObjAddr: 0xEC1C, symBinAddr: 0x1000111FC, symSize: 0x24 }
  - { offsetInCU: 0x21AD1, offset: 0x27FDD, size: 0x8, addend: 0x0, symName: __ZNKSt3__122__compressed_pair_elemIPNS_11__tree_nodeINS_12__value_typeIiiEEPvEELi0ELb0EE5__getB7v160006Ev, symObjAddr: 0xEC40, symBinAddr: 0x100011220, symSize: 0x14 }
  - { offsetInCU: 0x21AF6, offset: 0x28002, size: 0x8, addend: 0x0, symName: __ZNSt3__117__compressed_pairIPNS_11__tree_nodeINS_12__value_typeIiiEEPvEENS_22__tree_node_destructorINS_9allocatorIS5_EEEEE6secondB7v160006Ev, symObjAddr: 0xEC54, symBinAddr: 0x100011234, symSize: 0x28 }
  - { offsetInCU: 0x21B1B, offset: 0x28027, size: 0x8, addend: 0x0, symName: __ZNSt3__122__compressed_pair_elemINS_22__tree_node_destructorINS_9allocatorINS_11__tree_nodeINS_12__value_typeIiiEEPvEEEEEELi1ELb0EE5__getB7v160006Ev, symObjAddr: 0xEC7C, symBinAddr: 0x10001125C, symSize: 0x14 }
  - { offsetInCU: 0x21B40, offset: 0x2804C, size: 0x8, addend: 0x0, symName: __ZNSt3__16__treeINS_12__value_typeIiiEENS_19__map_value_compareIiS2_NS_4lessIiEELb1EEENS_9allocatorIS2_EEE4sizeB7v160006Ev, symObjAddr: 0xEC90, symBinAddr: 0x100011270, symSize: 0x28 }
  - { offsetInCU: 0x21B65, offset: 0x28071, size: 0x8, addend: 0x0, symName: __ZNSt3__117__compressed_pairImNS_19__map_value_compareIiNS_12__value_typeIiiEENS_4lessIiEELb1EEEE5firstB7v160006Ev, symObjAddr: 0xECB8, symBinAddr: 0x100011298, symSize: 0x24 }
  - { offsetInCU: 0x21B8A, offset: 0x28096, size: 0x8, addend: 0x0, symName: __ZNSt3__117__compressed_pairIPNS_11__tree_nodeINS_12__value_typeIiiEEPvEENS_22__tree_node_destructorINS_9allocatorIS5_EEEEE5firstB7v160006Ev, symObjAddr: 0xECDC, symBinAddr: 0x1000112BC, symSize: 0x24 }
  - { offsetInCU: 0x21BAF, offset: 0x280BB, size: 0x8, addend: 0x0, symName: __ZNSt3__122__compressed_pair_elemIPNS_11__tree_nodeINS_12__value_typeIiiEEPvEELi0ELb0EE5__getB7v160006Ev, symObjAddr: 0xED00, symBinAddr: 0x1000112E0, symSize: 0x14 }
  - { offsetInCU: 0x21BD4, offset: 0x280E0, size: 0x8, addend: 0x0, symName: __ZNSt3__110unique_ptrINS_11__tree_nodeINS_12__value_typeIiiEEPvEENS_22__tree_node_destructorINS_9allocatorIS5_EEEEED2B7v160006Ev, symObjAddr: 0xED14, symBinAddr: 0x1000112F4, symSize: 0x30 }
  - { offsetInCU: 0x21BFC, offset: 0x28108, size: 0x8, addend: 0x0, symName: __ZNSt3__110unique_ptrINS_11__tree_nodeINS_12__value_typeIiiEEPvEENS_22__tree_node_destructorINS_9allocatorIS5_EEEEE5resetB7v160006EPS5_, symObjAddr: 0xED44, symBinAddr: 0x100011324, symSize: 0x78 }
  - { offsetInCU: 0x21C40, offset: 0x2814C, size: 0x8, addend: 0x0, symName: __ZNSt3__122__tree_node_destructorINS_9allocatorINS_11__tree_nodeINS_12__value_typeIiiEEPvEEEEEclB7v160006EPS6_, symObjAddr: 0xEDBC, symBinAddr: 0x10001139C, symSize: 0x98 }
  - { offsetInCU: 0x21C74, offset: 0x28180, size: 0x8, addend: 0x0, symName: __ZNSt3__115__tree_iteratorINS_12__value_typeIiiEEPNS_11__tree_nodeIS2_PvEElEC2B7v160006ES6_, symObjAddr: 0xEE54, symBinAddr: 0x100011434, symSize: 0x20 }
  - { offsetInCU: 0x21CAB, offset: 0x281B7, size: 0x8, addend: 0x0, symName: __ZNSt3__14pairINS_15__tree_iteratorINS_12__value_typeIiiEEPNS_11__tree_nodeIS3_PvEElEEbEC2B7v160006IS8_RbLS5_0EEEOT_OT0_, symObjAddr: 0xEE74, symBinAddr: 0x100011454, symSize: 0x38 }
  - { offsetInCU: 0x21D07, offset: 0x28213, size: 0x8, addend: 0x0, symName: __ZNSt3__15tupleIJRKiEEC1B7v160006INS_4_AndELi0EEES2_, symObjAddr: 0xEEAC, symBinAddr: 0x10001148C, symSize: 0x34 }
  - { offsetInCU: 0x21D4E, offset: 0x2825A, size: 0x8, addend: 0x0, symName: __ZNSt3__15tupleIJRKiEEC2B7v160006INS_4_AndELi0EEES2_, symObjAddr: 0xEEE0, symBinAddr: 0x1000114C0, symSize: 0x34 }
  - { offsetInCU: 0x21D95, offset: 0x282A1, size: 0x8, addend: 0x0, symName: __ZNSt3__112__tuple_implINS_15__tuple_indicesIJLm0EEEEJRKiEEC1B7v160006IJLm0EEJS4_EJEJEJS4_EEENS1_IJXspT_EEEENS_13__tuple_typesIJDpT0_EEENS1_IJXspT1_EEEENS8_IJDpT2_EEEDpOT3_, symObjAddr: 0xEF14, symBinAddr: 0x1000114F4, symSize: 0x34 }
  - { offsetInCU: 0x21E28, offset: 0x28334, size: 0x8, addend: 0x0, symName: __ZNSt3__112__tuple_implINS_15__tuple_indicesIJLm0EEEEJRKiEEC2B7v160006IJLm0EEJS4_EJEJEJS4_EEENS1_IJXspT_EEEENS_13__tuple_typesIJDpT0_EEENS1_IJXspT1_EEEENS8_IJDpT2_EEEDpOT3_, symObjAddr: 0xEF48, symBinAddr: 0x100011528, symSize: 0x34 }
  - { offsetInCU: 0x21EBB, offset: 0x283C7, size: 0x8, addend: 0x0, symName: __ZNSt3__112__tuple_leafILm0ERKiLb0EEC2B7v160006IS2_vEEOT_, symObjAddr: 0xEF7C, symBinAddr: 0x10001155C, symSize: 0x20 }
  - { offsetInCU: 0x21EFC, offset: 0x28408, size: 0x8, addend: 0x0, symName: __ZNSt3__114pointer_traitsIPNS_12__value_typeIiiEEE10pointer_toB7v160006ERS2_, symObjAddr: 0xEF9C, symBinAddr: 0x10001157C, symSize: 0x14 }
  - { offsetInCU: 0x21F1F, offset: 0x2842B, size: 0x8, addend: 0x0, symName: __ZNKSt3__115__tree_iteratorINS_12__value_typeIiiEEPNS_11__tree_nodeIS2_PvEElE8__get_npB7v160006Ev, symObjAddr: 0xEFB0, symBinAddr: 0x100011590, symSize: 0x18 }
  - { offsetInCU: 0x21F44, offset: 0x28450, size: 0x8, addend: 0x0, symName: __ZNSt3__16__treeINS_12__value_typeIiiEENS_19__map_value_compareIiS2_NS_4lessIiEELb1EEENS_9allocatorIS2_EEE5beginB7v160006Ev, symObjAddr: 0xEFC8, symBinAddr: 0x1000115A8, symSize: 0x34 }
  - { offsetInCU: 0x21F69, offset: 0x28475, size: 0x8, addend: 0x0, symName: __ZNSt3__114__map_iteratorINS_15__tree_iteratorINS_12__value_typeIiiEEPNS_11__tree_nodeIS3_PvEElEEEC1B7v160006ES8_, symObjAddr: 0xEFFC, symBinAddr: 0x1000115DC, symSize: 0x34 }
  - { offsetInCU: 0x21FA0, offset: 0x284AC, size: 0x8, addend: 0x0, symName: __ZNSt3__115__tree_iteratorINS_12__value_typeIiiEEPNS_11__tree_nodeIS2_PvEElEC1B7v160006EPNS_15__tree_end_nodeIPNS_16__tree_node_baseIS4_EEEE, symObjAddr: 0xF030, symBinAddr: 0x100011610, symSize: 0x34 }
  - { offsetInCU: 0x21FD7, offset: 0x284E3, size: 0x8, addend: 0x0, symName: __ZNSt3__115__tree_iteratorINS_12__value_typeIiiEEPNS_11__tree_nodeIS2_PvEElEC2B7v160006EPNS_15__tree_end_nodeIPNS_16__tree_node_baseIS4_EEEE, symObjAddr: 0xF064, symBinAddr: 0x100011644, symSize: 0x20 }
  - { offsetInCU: 0x2200E, offset: 0x2851A, size: 0x8, addend: 0x0, symName: __ZNSt3__114__map_iteratorINS_15__tree_iteratorINS_12__value_typeIiiEEPNS_11__tree_nodeIS3_PvEElEEEC2B7v160006ES8_, symObjAddr: 0xF084, symBinAddr: 0x100011664, symSize: 0x20 }
  - { offsetInCU: 0x22045, offset: 0x28551, size: 0x8, addend: 0x0, symName: __ZNSt3__16__treeINS_12__value_typeIiiEENS_19__map_value_compareIiS2_NS_4lessIiEELb1EEENS_9allocatorIS2_EEE3endB7v160006Ev, symObjAddr: 0xF0A4, symBinAddr: 0x100011684, symSize: 0x34 }
  - { offsetInCU: 0x2206A, offset: 0x28576, size: 0x8, addend: 0x0, symName: __ZNSt3__115__tree_iteratorINS_12__value_typeIiiEEPNS_11__tree_nodeIS2_PvEElEppB7v160006Ev, symObjAddr: 0xF13C, symBinAddr: 0x10001171C, symSize: 0x38 }
  - { offsetInCU: 0x14026, offset: 0x3C8EF, size: 0x8, addend: 0x0, symName: __Z19CA_record_swapStateR16CellularAutomataNSt3__112basic_stringIcNS1_11char_traitsIcEENS1_9allocatorIcEEEE, symObjAddr: 0x0, symBinAddr: 0x100011754, symSize: 0x2F4 }
  - { offsetInCU: 0x141DA, offset: 0x3CAA3, size: 0x8, addend: 0x0, symName: __ZNSt3__113basic_fstreamIcNS_11char_traitsIcEEEC1Ev, symObjAddr: 0x2F4, symBinAddr: 0x100011A48, symSize: 0x100 }
  - { offsetInCU: 0x14205, offset: 0x3CACE, size: 0x8, addend: 0x0, symName: __ZNSt3__113basic_fstreamIcNS_11char_traitsIcEEE4openERKNS_12basic_stringIcS2_NS_9allocatorIcEEEEj, symObjAddr: 0x3F4, symBinAddr: 0x100011B48, symSize: 0x84 }
  - { offsetInCU: 0x1424A, offset: 0x3CB13, size: 0x8, addend: 0x0, symName: __ZNKSt3__113basic_fstreamIcNS_11char_traitsIcEEE7is_openEv, symObjAddr: 0x478, symBinAddr: 0x100011BCC, symSize: 0x2C }
  - { offsetInCU: 0x14271, offset: 0x3CB3A, size: 0x8, addend: 0x0, symName: __ZNKSt3__112basic_stringIcNS_11char_traitsIcEENS_9allocatorIcEEE5c_strB7v160006Ev, symObjAddr: 0x4A4, symBinAddr: 0x100011BF8, symSize: 0x24 }
  - { offsetInCU: 0x14296, offset: 0x3CB5F, size: 0x8, addend: 0x0, symName: __ZNSt3__113basic_ostreamIcNS_11char_traitsIcEEE5tellpEv, symObjAddr: 0x4C8, symBinAddr: 0x100011C1C, symSize: 0x7C }
  - { offsetInCU: 0x142BD, offset: 0x3CB86, size: 0x8, addend: 0x0, symName: __ZNKSt3__14fposI11__mbstate_tEcvxB7v160006Ev, symObjAddr: 0x544, symBinAddr: 0x100011C98, symSize: 0x18 }
  - { offsetInCU: 0x14597, offset: 0x3CE60, size: 0x8, addend: 0x0, symName: __ZNSt3__113basic_fstreamIcNS_11char_traitsIcEEE5closeEv, symObjAddr: 0x680, symBinAddr: 0x100011CB0, symSize: 0x58 }
  - { offsetInCU: 0x145C3, offset: 0x3CE8C, size: 0x8, addend: 0x0, symName: __ZNSt3__113basic_fstreamIcNS_11char_traitsIcEEED1Ev, symObjAddr: 0x6D8, symBinAddr: 0x100011D08, symSize: 0x40 }
  - { offsetInCU: 0x145ED, offset: 0x3CEB6, size: 0x8, addend: 0x0, symName: __Z9CA_EngineR16CellularAutomataiNSt3__112basic_stringIcNS1_11char_traitsIcEENS1_9allocatorIcEEEE, symObjAddr: 0x718, symBinAddr: 0x100011D48, symSize: 0x2EC }
  - { offsetInCU: 0x1469C, offset: 0x3CF65, size: 0x8, addend: 0x0, symName: __ZNSt3__113basic_fstreamIcNS_11char_traitsIcEEED2Ev, symObjAddr: 0xC74, symBinAddr: 0x100012034, symSize: 0x6C }
  - { offsetInCU: 0x146D3, offset: 0x3CF9C, size: 0x8, addend: 0x0, symName: __ZThn16_NSt3__113basic_fstreamIcNS_11char_traitsIcEEED1Ev, symObjAddr: 0xCE0, symBinAddr: 0x1000120A0, symSize: 0x1C }
  - { offsetInCU: 0x146E9, offset: 0x3CFB2, size: 0x8, addend: 0x0, symName: __ZTv0_n24_NSt3__113basic_fstreamIcNS_11char_traitsIcEEED1Ev, symObjAddr: 0xCFC, symBinAddr: 0x1000120BC, symSize: 0x28 }
  - { offsetInCU: 0x146FF, offset: 0x3CFC8, size: 0x8, addend: 0x0, symName: __ZNSt3__113basic_fstreamIcNS_11char_traitsIcEEED0Ev, symObjAddr: 0xD24, symBinAddr: 0x1000120E4, symSize: 0x30 }
  - { offsetInCU: 0x1472A, offset: 0x3CFF3, size: 0x8, addend: 0x0, symName: __ZThn16_NSt3__113basic_fstreamIcNS_11char_traitsIcEEED0Ev, symObjAddr: 0xD54, symBinAddr: 0x100012114, symSize: 0x18 }
  - { offsetInCU: 0x14740, offset: 0x3D009, size: 0x8, addend: 0x0, symName: __ZTv0_n24_NSt3__113basic_fstreamIcNS_11char_traitsIcEEED0Ev, symObjAddr: 0xD6C, symBinAddr: 0x10001212C, symSize: 0x20 }
  - { offsetInCU: 0x1476F, offset: 0x3D038, size: 0x8, addend: 0x0, symName: __ZNSt3__19basic_iosIcNS_11char_traitsIcEEEC2B7v160006Ev, symObjAddr: 0x2E34, symBinAddr: 0x10001214C, symSize: 0x44 }
  - { offsetInCU: 0x14797, offset: 0x3D060, size: 0x8, addend: 0x0, symName: __ZNSt3__114basic_iostreamIcNS_11char_traitsIcEEEC2B7v160006EPNS_15basic_streambufIcS2_EE, symObjAddr: 0x2E78, symBinAddr: 0x100012190, symSize: 0xAC }
  - { offsetInCU: 0x147DA, offset: 0x3D0A3, size: 0x8, addend: 0x0, symName: __ZNSt3__18ios_baseC2B7v160006Ev, symObjAddr: 0x2F24, symBinAddr: 0x10001223C, symSize: 0x24 }
  - { offsetInCU: 0x14802, offset: 0x3D0CB, size: 0x8, addend: 0x0, symName: __ZNSt3__113basic_istreamIcNS_11char_traitsIcEEEC2B7v160006EPNS_15basic_streambufIcS2_EE, symObjAddr: 0x2F48, symBinAddr: 0x100012260, symSize: 0x64 }
  - { offsetInCU: 0x14844, offset: 0x3D10D, size: 0x8, addend: 0x0, symName: __ZNSt3__113basic_ostreamIcNS_11char_traitsIcEEEC2B7v160006Ev, symObjAddr: 0x2FAC, symBinAddr: 0x1000122C4, symSize: 0x34 }
  - { offsetInCU: 0x14878, offset: 0x3D141, size: 0x8, addend: 0x0, symName: __ZNSt3__19basic_iosIcNS_11char_traitsIcEEE4initB7v160006EPNS_15basic_streambufIcS2_EE, symObjAddr: 0x2FE0, symBinAddr: 0x1000122F8, symSize: 0x44 }
  - { offsetInCU: 0x148AE, offset: 0x3D177, size: 0x8, addend: 0x0, symName: __ZNSt3__113basic_filebufIcNS_11char_traitsIcEEE4openERKNS_12basic_stringIcS2_NS_9allocatorIcEEEEj, symObjAddr: 0x302C, symBinAddr: 0x10001233C, symSize: 0x44 }
  - { offsetInCU: 0x148F1, offset: 0x3D1BA, size: 0x8, addend: 0x0, symName: __ZNSt3__19basic_iosIcNS_11char_traitsIcEEE5clearB7v160006Ej, symObjAddr: 0x3070, symBinAddr: 0x100012380, symSize: 0x2C }
  - { offsetInCU: 0x14925, offset: 0x3D1EE, size: 0x8, addend: 0x0, symName: __ZNKSt3__113basic_filebufIcNS_11char_traitsIcEEE7is_openEv, symObjAddr: 0x30FC, symBinAddr: 0x1000123AC, symSize: 0x24 }
  - { offsetInCU: 0x1494C, offset: 0x3D215, size: 0x8, addend: 0x0, symName: __ZNKSt3__19basic_iosIcNS_11char_traitsIcEEE4failB7v160006Ev, symObjAddr: 0x3120, symBinAddr: 0x1000123D0, symSize: 0x28 }
  - { offsetInCU: 0x14971, offset: 0x3D23A, size: 0x8, addend: 0x0, symName: __ZNSt3__14fposI11__mbstate_tEC1B7v160006Ex, symObjAddr: 0x3148, symBinAddr: 0x1000123F8, symSize: 0x34 }
  - { offsetInCU: 0x149A7, offset: 0x3D270, size: 0x8, addend: 0x0, symName: __ZNSt3__115basic_streambufIcNS_11char_traitsIcEEE10pubseekoffB7v160006ExNS_8ios_base7seekdirEj, symObjAddr: 0x31A0, symBinAddr: 0x10001242C, symSize: 0x44 }
  - { offsetInCU: 0x149F6, offset: 0x3D2BF, size: 0x8, addend: 0x0, symName: __ZNKSt3__18ios_base4failB7v160006Ev, symObjAddr: 0x31E4, symBinAddr: 0x100012470, symSize: 0x28 }
  - { offsetInCU: 0x14A1D, offset: 0x3D2E6, size: 0x8, addend: 0x0, symName: __ZNSt3__14fposI11__mbstate_tEC2B7v160006Ex, symObjAddr: 0x320C, symBinAddr: 0x100012498, symSize: 0x40 }
...
